

Microchip MPLAB XC8 Assembler V2.31 build 20201012212115 
                                                                                               Thu Feb 11 16:00:04 2021

Microchip MPLAB XC8 C Compiler v2.31 (Free license) build 20201012212115 Og1 
     1                           	processor	16F15345
     2                           	pagewidth 120
     3                           	opt	flic
     4                           	psect	nvBANK0,global,class=BANK0,space=1,delta=1,noexec
     5                           	psect	nvBANK1,global,class=BANK1,space=1,delta=1,noexec
     6                           	psect	stringtext1,global,class=STRCODE,delta=2,noexec
     7                           	psect	stringtext2,global,class=STRCODE,delta=2,noexec
     8                           	psect	cinit,global,class=CODE,merge=1,delta=2
     9                           	psect	bssCOMMON,global,class=COMMON,space=1,delta=1,noexec
    10                           	psect	bssBANK0,global,class=BANK0,space=1,delta=1,noexec
    11                           	psect	bssBANK1,global,class=BANK1,space=1,delta=1,noexec
    12                           	psect	clrtext,global,class=CODE,delta=2
    13                           	psect	cstackBANK2,global,class=BANK2,space=1,delta=1,noexec
    14                           	psect	cstackCOMMON,global,class=COMMON,space=1,delta=1,noexec
    15                           	psect	cstackBANK0,global,class=BANK0,space=1,delta=1,noexec
    16                           	psect	maintext,global,class=CODE,merge=1,split=1,delta=2
    17                           	psect	text1,local,class=CODE,merge=1,delta=2,group=3
    18                           	psect	text2,local,class=CODE,merge=1,delta=2,group=3
    19                           	psect	text3,local,class=CODE,merge=1,delta=2,group=1
    20                           	psect	text4,local,class=CODE,merge=1,delta=2,group=1
    21                           	psect	text5,local,class=CODE,merge=1,delta=2,group=1
    22                           	psect	text6,local,class=CODE,merge=1,delta=2,group=3
    23                           	psect	text7,local,class=CODE,merge=1,delta=2
    24                           	psect	text8,local,class=CODE,merge=1,delta=2
    25                           	psect	text9,local,class=CODE,merge=1,delta=2
    26                           	psect	text10,local,class=CODE,merge=1,delta=2
    27                           	psect	text11,local,class=CODE,merge=1,delta=2
    28                           	psect	text12,local,class=CODE,merge=1,delta=2
    29                           	psect	text13,local,class=CODE,merge=1,delta=2
    30                           	psect	text14,local,class=CODE,merge=1,delta=2
    31                           	psect	text15,local,class=CODE,merge=1,delta=2
    32                           	psect	text16,local,class=CODE,merge=1,delta=2
    33                           	psect	text17,local,class=CODE,merge=1,delta=2
    34                           	psect	text18,local,class=CODE,merge=1,delta=2
    35                           	psect	text19,local,class=CODE,merge=1,delta=2
    36                           	psect	text20,local,class=CODE,merge=1,delta=2
    37                           	psect	text21,local,class=CODE,merge=1,delta=2
    38                           	psect	text22,local,class=CODE,merge=1,delta=2
    39                           	psect	text23,local,class=CODE,merge=1,delta=2
    40                           	psect	text24,local,class=CODE,merge=1,delta=2
    41                           	psect	intentry,global,class=CODE,delta=2
    42                           	psect	text26,local,class=CODE,merge=1,delta=2
    43                           	psect	text27,local,class=CODE,merge=1,delta=2
    44                           	psect	text28,local,class=CODE,merge=1,delta=2
    45                           	psect	text29,local,class=CODE,merge=1,delta=2
    46                           	psect	text30,local,class=CODE,merge=1,delta=2
    47                           	psect	text31,local,class=CODE,merge=1,delta=2
    48                           	psect	config,global,abs,ovrld,class=CONFIG,space=4,delta=2,noexec
    49                           	dabs	1,0x7E,2
    50  0000                     
    51                           ; Version 2.30
    52                           ; Generated 15/09/2020 GMT
    53                           ; 
    54                           ; Copyright © 2020, Microchip Technology Inc. and its subsidiaries ("Microchip")
    55                           ; All rights reserved.
    56                           ; 
    57                           ; This software is developed by Microchip Technology Inc. and its subsidiaries ("Microch
      +                          ip").
    58                           ; 
    59                           ; Redistribution and use in source and binary forms, with or without modification, are
    60                           ; permitted provided that the following conditions are met:
    61                           ; 
    62                           ;     1. Redistributions of source code must retain the above copyright notice, this lis
      +                          t of
    63                           ;        conditions and the following disclaimer.
    64                           ; 
    65                           ;     2. Redistributions in binary form must reproduce the above copyright notice, this 
      +                          list
    66                           ;        of conditions and the following disclaimer in the documentation and/or other
    67                           ;        materials provided with the distribution. Publication is not required when
    68                           ;        this file is used in an embedded application.
    69                           ; 
    70                           ;     3. Microchip's name may not be used to endorse or promote products derived from th
      +                          is
    71                           ;        software without specific prior written permission.
    72                           ; 
    73                           ; THIS SOFTWARE IS PROVIDED BY MICROCHIP "AS IS" AND ANY EXPRESS OR IMPLIED WARRANTIES,
    74                           ; INCLUDING, BUT NOT LIMITED TO, THE IMPLIED WARRANTIES OF MERCHANTABILITY AND FITNESS F
      +                          OR
    75                           ; PURPOSE ARE DISCLAIMED.  IN NO EVENT SHALL MICROCHIP BE LIABLE FOR ANY DIRECT, INDIREC
      +                          T,
    76                           ; INCIDENTAL, SPECIAL, EXEMPLARY, OR CONSEQUENTIAL DAMAGES (INCLUDING BUT NOT LIMITED TO
    77                           ; PROCUREMENT OF SUBSTITUTE GOODS OR SERVICES; LOSS OF USE, DATA OR PROFITS; OR BUSINESS
    78                           ; INTERRUPTION) HOWSOEVER CAUSED AND ON ANY THEORY OF LIABILITY, WHETHER IN CONTRACT, ST
      +                          RICT
    79                           ; LIABILITY, OR TORT (INCLUDING NEGLIGENCE OR OTHERWISE) ARISING IN ANY WAY OUT OF THE U
      +                          SE OF
    80                           ; THIS SOFTWARE, EVEN IF ADVISED OF THE POSSIBILITY OF SUCH DAMAGE.
    81                           ; 
    82                           ; 
    83                           ; Code-generator required, PIC16F15345 Definitions
    84                           ; 
    85                           ; SFR Addresses
    86  0000                     	;# 
    87  0001                     	;# 
    88  0002                     	;# 
    89  0003                     	;# 
    90  0004                     	;# 
    91  0005                     	;# 
    92  0006                     	;# 
    93  0007                     	;# 
    94  0008                     	;# 
    95  0009                     	;# 
    96  000A                     	;# 
    97  000B                     	;# 
    98  000C                     	;# 
    99  000D                     	;# 
   100  000E                     	;# 
   101  0012                     	;# 
   102  0013                     	;# 
   103  0014                     	;# 
   104  0018                     	;# 
   105  0019                     	;# 
   106  001A                     	;# 
   107  009B                     	;# 
   108  009B                     	;# 
   109  009C                     	;# 
   110  009D                     	;# 
   111  009E                     	;# 
   112  009F                     	;# 
   113  0119                     	;# 
   114  0119                     	;# 
   115  0119                     	;# 
   116  011A                     	;# 
   117  011A                     	;# 
   118  011A                     	;# 
   119  011B                     	;# 
   120  011B                     	;# 
   121  011B                     	;# 
   122  011B                     	;# 
   123  011B                     	;# 
   124  011C                     	;# 
   125  011C                     	;# 
   126  011C                     	;# 
   127  011D                     	;# 
   128  011D                     	;# 
   129  011D                     	;# 
   130  011E                     	;# 
   131  011E                     	;# 
   132  011E                     	;# 
   133  011F                     	;# 
   134  011F                     	;# 
   135  011F                     	;# 
   136  011F                     	;# 
   137  011F                     	;# 
   138  018C                     	;# 
   139  018D                     	;# 
   140  018E                     	;# 
   141  018F                     	;# 
   142  0190                     	;# 
   143  0191                     	;# 
   144  0192                     	;# 
   145  020C                     	;# 
   146  020C                     	;# 
   147  020D                     	;# 
   148  020E                     	;# 
   149  020F                     	;# 
   150  020F                     	;# 
   151  0210                     	;# 
   152  0210                     	;# 
   153  0211                     	;# 
   154  0211                     	;# 
   155  028C                     	;# 
   156  028C                     	;# 
   157  028D                     	;# 
   158  028D                     	;# 
   159  028E                     	;# 
   160  028F                     	;# 
   161  0290                     	;# 
   162  0291                     	;# 
   163  030C                     	;# 
   164  030C                     	;# 
   165  030D                     	;# 
   166  030E                     	;# 
   167  030F                     	;# 
   168  0310                     	;# 
   169  0310                     	;# 
   170  0311                     	;# 
   171  0312                     	;# 
   172  0313                     	;# 
   173  0314                     	;# 
   174  0314                     	;# 
   175  0315                     	;# 
   176  0316                     	;# 
   177  0318                     	;# 
   178  0318                     	;# 
   179  0319                     	;# 
   180  031A                     	;# 
   181  031C                     	;# 
   182  031C                     	;# 
   183  031D                     	;# 
   184  031E                     	;# 
   185  038C                     	;# 
   186  038C                     	;# 
   187  038D                     	;# 
   188  038E                     	;# 
   189  058C                     	;# 
   190  058C                     	;# 
   191  058D                     	;# 
   192  058E                     	;# 
   193  058F                     	;# 
   194  058F                     	;# 
   195  0590                     	;# 
   196  0591                     	;# 
   197  0592                     	;# 
   198  0593                     	;# 
   199  059C                     	;# 
   200  059C                     	;# 
   201  059D                     	;# 
   202  059D                     	;# 
   203  059E                     	;# 
   204  059F                     	;# 
   205  060C                     	;# 
   206  060D                     	;# 
   207  060E                     	;# 
   208  060F                     	;# 
   209  0610                     	;# 
   210  0611                     	;# 
   211  0612                     	;# 
   212  0613                     	;# 
   213  0614                     	;# 
   214  070C                     	;# 
   215  070D                     	;# 
   216  070E                     	;# 
   217  070F                     	;# 
   218  0710                     	;# 
   219  0711                     	;# 
   220  0712                     	;# 
   221  0713                     	;# 
   222  0716                     	;# 
   223  0717                     	;# 
   224  0718                     	;# 
   225  0719                     	;# 
   226  071A                     	;# 
   227  071B                     	;# 
   228  071C                     	;# 
   229  071D                     	;# 
   230  0796                     	;# 
   231  0797                     	;# 
   232  0798                     	;# 
   233  0799                     	;# 
   234  079A                     	;# 
   235  079B                     	;# 
   236  080C                     	;# 
   237  080D                     	;# 
   238  080E                     	;# 
   239  080F                     	;# 
   240  0810                     	;# 
   241  0811                     	;# 
   242  0812                     	;# 
   243  0813                     	;# 
   244  0814                     	;# 
   245  081A                     	;# 
   246  081A                     	;# 
   247  081B                     	;# 
   248  081C                     	;# 
   249  081C                     	;# 
   250  081D                     	;# 
   251  081E                     	;# 
   252  081F                     	;# 
   253  088C                     	;# 
   254  088D                     	;# 
   255  088E                     	;# 
   256  088F                     	;# 
   257  0890                     	;# 
   258  0891                     	;# 
   259  0892                     	;# 
   260  0893                     	;# 
   261  0895                     	;# 
   262  0896                     	;# 
   263  090C                     	;# 
   264  090E                     	;# 
   265  090F                     	;# 
   266  091F                     	;# 
   267  098F                     	;# 
   268  098F                     	;# 
   269  0990                     	;# 
   270  0991                     	;# 
   271  0992                     	;# 
   272  0993                     	;# 
   273  0994                     	;# 
   274  0995                     	;# 
   275  0996                     	;# 
   276  0997                     	;# 
   277  0A19                     	;# 
   278  0A19                     	;# 
   279  0A1A                     	;# 
   280  0A1A                     	;# 
   281  0A1B                     	;# 
   282  0A1B                     	;# 
   283  0A1B                     	;# 
   284  0A1C                     	;# 
   285  0A1C                     	;# 
   286  0A1D                     	;# 
   287  0A1D                     	;# 
   288  0A1E                     	;# 
   289  0A1E                     	;# 
   290  0A1F                     	;# 
   291  0A1F                     	;# 
   292  0A1F                     	;# 
   293  1E0F                     	;# 
   294  1E10                     	;# 
   295  1E11                     	;# 
   296  1E12                     	;# 
   297  1E13                     	;# 
   298  1E14                     	;# 
   299  1E15                     	;# 
   300  1E16                     	;# 
   301  1E17                     	;# 
   302  1E18                     	;# 
   303  1E19                     	;# 
   304  1E1A                     	;# 
   305  1E1B                     	;# 
   306  1E1C                     	;# 
   307  1E1D                     	;# 
   308  1E1E                     	;# 
   309  1E1F                     	;# 
   310  1E20                     	;# 
   311  1E21                     	;# 
   312  1E22                     	;# 
   313  1E23                     	;# 
   314  1E24                     	;# 
   315  1E25                     	;# 
   316  1E26                     	;# 
   317  1E27                     	;# 
   318  1E28                     	;# 
   319  1E29                     	;# 
   320  1E2A                     	;# 
   321  1E2B                     	;# 
   322  1E2C                     	;# 
   323  1E2D                     	;# 
   324  1E2E                     	;# 
   325  1E2F                     	;# 
   326  1E30                     	;# 
   327  1E31                     	;# 
   328  1E32                     	;# 
   329  1E33                     	;# 
   330  1E34                     	;# 
   331  1E35                     	;# 
   332  1E36                     	;# 
   333  1E37                     	;# 
   334  1E8F                     	;# 
   335  1E90                     	;# 
   336  1E91                     	;# 
   337  1E92                     	;# 
   338  1E93                     	;# 
   339  1E9C                     	;# 
   340  1EA1                     	;# 
   341  1EA2                     	;# 
   342  1EB1                     	;# 
   343  1EBB                     	;# 
   344  1EBC                     	;# 
   345  1EBD                     	;# 
   346  1EBE                     	;# 
   347  1EC3                     	;# 
   348  1EC5                     	;# 
   349  1EC6                     	;# 
   350  1EC7                     	;# 
   351  1ECB                     	;# 
   352  1ECC                     	;# 
   353  1ECD                     	;# 
   354  1ECE                     	;# 
   355  1F10                     	;# 
   356  1F11                     	;# 
   357  1F12                     	;# 
   358  1F13                     	;# 
   359  1F14                     	;# 
   360  1F15                     	;# 
   361  1F1C                     	;# 
   362  1F1D                     	;# 
   363  1F1E                     	;# 
   364  1F1F                     	;# 
   365  1F20                     	;# 
   366  1F21                     	;# 
   367  1F22                     	;# 
   368  1F23                     	;# 
   369  1F24                     	;# 
   370  1F25                     	;# 
   371  1F26                     	;# 
   372  1F27                     	;# 
   373  1F38                     	;# 
   374  1F39                     	;# 
   375  1F3A                     	;# 
   376  1F3B                     	;# 
   377  1F3C                     	;# 
   378  1F3D                     	;# 
   379  1F3E                     	;# 
   380  1F3F                     	;# 
   381  1F43                     	;# 
   382  1F44                     	;# 
   383  1F45                     	;# 
   384  1F46                     	;# 
   385  1F47                     	;# 
   386  1F48                     	;# 
   387  1F49                     	;# 
   388  1F4A                     	;# 
   389  1F4E                     	;# 
   390  1F4F                     	;# 
   391  1F50                     	;# 
   392  1F51                     	;# 
   393  1F52                     	;# 
   394  1F53                     	;# 
   395  1F54                     	;# 
   396  1F55                     	;# 
   397  1FE4                     	;# 
   398  1FE5                     	;# 
   399  1FE6                     	;# 
   400  1FE7                     	;# 
   401  1FE8                     	;# 
   402  1FE8                     	;# 
   403  1FE9                     	;# 
   404  1FEA                     	;# 
   405  1FEA                     	;# 
   406  1FEB                     	;# 
   407  1FED                     	;# 
   408  1FEE                     	;# 
   409  1FEF                     	;# 
   410  0000                     	;# 
   411  0001                     	;# 
   412  0002                     	;# 
   413  0003                     	;# 
   414  0004                     	;# 
   415  0005                     	;# 
   416  0006                     	;# 
   417  0007                     	;# 
   418  0008                     	;# 
   419  0009                     	;# 
   420  000A                     	;# 
   421  000B                     	;# 
   422  000C                     	;# 
   423  000D                     	;# 
   424  000E                     	;# 
   425  0012                     	;# 
   426  0013                     	;# 
   427  0014                     	;# 
   428  0018                     	;# 
   429  0019                     	;# 
   430  001A                     	;# 
   431  009B                     	;# 
   432  009B                     	;# 
   433  009C                     	;# 
   434  009D                     	;# 
   435  009E                     	;# 
   436  009F                     	;# 
   437  0119                     	;# 
   438  0119                     	;# 
   439  0119                     	;# 
   440  011A                     	;# 
   441  011A                     	;# 
   442  011A                     	;# 
   443  011B                     	;# 
   444  011B                     	;# 
   445  011B                     	;# 
   446  011B                     	;# 
   447  011B                     	;# 
   448  011C                     	;# 
   449  011C                     	;# 
   450  011C                     	;# 
   451  011D                     	;# 
   452  011D                     	;# 
   453  011D                     	;# 
   454  011E                     	;# 
   455  011E                     	;# 
   456  011E                     	;# 
   457  011F                     	;# 
   458  011F                     	;# 
   459  011F                     	;# 
   460  011F                     	;# 
   461  011F                     	;# 
   462  018C                     	;# 
   463  018D                     	;# 
   464  018E                     	;# 
   465  018F                     	;# 
   466  0190                     	;# 
   467  0191                     	;# 
   468  0192                     	;# 
   469  020C                     	;# 
   470  020C                     	;# 
   471  020D                     	;# 
   472  020E                     	;# 
   473  020F                     	;# 
   474  020F                     	;# 
   475  0210                     	;# 
   476  0210                     	;# 
   477  0211                     	;# 
   478  0211                     	;# 
   479  028C                     	;# 
   480  028C                     	;# 
   481  028D                     	;# 
   482  028D                     	;# 
   483  028E                     	;# 
   484  028F                     	;# 
   485  0290                     	;# 
   486  0291                     	;# 
   487  030C                     	;# 
   488  030C                     	;# 
   489  030D                     	;# 
   490  030E                     	;# 
   491  030F                     	;# 
   492  0310                     	;# 
   493  0310                     	;# 
   494  0311                     	;# 
   495  0312                     	;# 
   496  0313                     	;# 
   497  0314                     	;# 
   498  0314                     	;# 
   499  0315                     	;# 
   500  0316                     	;# 
   501  0318                     	;# 
   502  0318                     	;# 
   503  0319                     	;# 
   504  031A                     	;# 
   505  031C                     	;# 
   506  031C                     	;# 
   507  031D                     	;# 
   508  031E                     	;# 
   509  038C                     	;# 
   510  038C                     	;# 
   511  038D                     	;# 
   512  038E                     	;# 
   513  058C                     	;# 
   514  058C                     	;# 
   515  058D                     	;# 
   516  058E                     	;# 
   517  058F                     	;# 
   518  058F                     	;# 
   519  0590                     	;# 
   520  0591                     	;# 
   521  0592                     	;# 
   522  0593                     	;# 
   523  059C                     	;# 
   524  059C                     	;# 
   525  059D                     	;# 
   526  059D                     	;# 
   527  059E                     	;# 
   528  059F                     	;# 
   529  060C                     	;# 
   530  060D                     	;# 
   531  060E                     	;# 
   532  060F                     	;# 
   533  0610                     	;# 
   534  0611                     	;# 
   535  0612                     	;# 
   536  0613                     	;# 
   537  0614                     	;# 
   538  070C                     	;# 
   539  070D                     	;# 
   540  070E                     	;# 
   541  070F                     	;# 
   542  0710                     	;# 
   543  0711                     	;# 
   544  0712                     	;# 
   545  0713                     	;# 
   546  0716                     	;# 
   547  0717                     	;# 
   548  0718                     	;# 
   549  0719                     	;# 
   550  071A                     	;# 
   551  071B                     	;# 
   552  071C                     	;# 
   553  071D                     	;# 
   554  0796                     	;# 
   555  0797                     	;# 
   556  0798                     	;# 
   557  0799                     	;# 
   558  079A                     	;# 
   559  079B                     	;# 
   560  080C                     	;# 
   561  080D                     	;# 
   562  080E                     	;# 
   563  080F                     	;# 
   564  0810                     	;# 
   565  0811                     	;# 
   566  0812                     	;# 
   567  0813                     	;# 
   568  0814                     	;# 
   569  081A                     	;# 
   570  081A                     	;# 
   571  081B                     	;# 
   572  081C                     	;# 
   573  081C                     	;# 
   574  081D                     	;# 
   575  081E                     	;# 
   576  081F                     	;# 
   577  088C                     	;# 
   578  088D                     	;# 
   579  088E                     	;# 
   580  088F                     	;# 
   581  0890                     	;# 
   582  0891                     	;# 
   583  0892                     	;# 
   584  0893                     	;# 
   585  0895                     	;# 
   586  0896                     	;# 
   587  090C                     	;# 
   588  090E                     	;# 
   589  090F                     	;# 
   590  091F                     	;# 
   591  098F                     	;# 
   592  098F                     	;# 
   593  0990                     	;# 
   594  0991                     	;# 
   595  0992                     	;# 
   596  0993                     	;# 
   597  0994                     	;# 
   598  0995                     	;# 
   599  0996                     	;# 
   600  0997                     	;# 
   601  0A19                     	;# 
   602  0A19                     	;# 
   603  0A1A                     	;# 
   604  0A1A                     	;# 
   605  0A1B                     	;# 
   606  0A1B                     	;# 
   607  0A1B                     	;# 
   608  0A1C                     	;# 
   609  0A1C                     	;# 
   610  0A1D                     	;# 
   611  0A1D                     	;# 
   612  0A1E                     	;# 
   613  0A1E                     	;# 
   614  0A1F                     	;# 
   615  0A1F                     	;# 
   616  0A1F                     	;# 
   617  1E0F                     	;# 
   618  1E10                     	;# 
   619  1E11                     	;# 
   620  1E12                     	;# 
   621  1E13                     	;# 
   622  1E14                     	;# 
   623  1E15                     	;# 
   624  1E16                     	;# 
   625  1E17                     	;# 
   626  1E18                     	;# 
   627  1E19                     	;# 
   628  1E1A                     	;# 
   629  1E1B                     	;# 
   630  1E1C                     	;# 
   631  1E1D                     	;# 
   632  1E1E                     	;# 
   633  1E1F                     	;# 
   634  1E20                     	;# 
   635  1E21                     	;# 
   636  1E22                     	;# 
   637  1E23                     	;# 
   638  1E24                     	;# 
   639  1E25                     	;# 
   640  1E26                     	;# 
   641  1E27                     	;# 
   642  1E28                     	;# 
   643  1E29                     	;# 
   644  1E2A                     	;# 
   645  1E2B                     	;# 
   646  1E2C                     	;# 
   647  1E2D                     	;# 
   648  1E2E                     	;# 
   649  1E2F                     	;# 
   650  1E30                     	;# 
   651  1E31                     	;# 
   652  1E32                     	;# 
   653  1E33                     	;# 
   654  1E34                     	;# 
   655  1E35                     	;# 
   656  1E36                     	;# 
   657  1E37                     	;# 
   658  1E8F                     	;# 
   659  1E90                     	;# 
   660  1E91                     	;# 
   661  1E92                     	;# 
   662  1E93                     	;# 
   663  1E9C                     	;# 
   664  1EA1                     	;# 
   665  1EA2                     	;# 
   666  1EB1                     	;# 
   667  1EBB                     	;# 
   668  1EBC                     	;# 
   669  1EBD                     	;# 
   670  1EBE                     	;# 
   671  1EC3                     	;# 
   672  1EC5                     	;# 
   673  1EC6                     	;# 
   674  1EC7                     	;# 
   675  1ECB                     	;# 
   676  1ECC                     	;# 
   677  1ECD                     	;# 
   678  1ECE                     	;# 
   679  1F10                     	;# 
   680  1F11                     	;# 
   681  1F12                     	;# 
   682  1F13                     	;# 
   683  1F14                     	;# 
   684  1F15                     	;# 
   685  1F1C                     	;# 
   686  1F1D                     	;# 
   687  1F1E                     	;# 
   688  1F1F                     	;# 
   689  1F20                     	;# 
   690  1F21                     	;# 
   691  1F22                     	;# 
   692  1F23                     	;# 
   693  1F24                     	;# 
   694  1F25                     	;# 
   695  1F26                     	;# 
   696  1F27                     	;# 
   697  1F38                     	;# 
   698  1F39                     	;# 
   699  1F3A                     	;# 
   700  1F3B                     	;# 
   701  1F3C                     	;# 
   702  1F3D                     	;# 
   703  1F3E                     	;# 
   704  1F3F                     	;# 
   705  1F43                     	;# 
   706  1F44                     	;# 
   707  1F45                     	;# 
   708  1F46                     	;# 
   709  1F47                     	;# 
   710  1F48                     	;# 
   711  1F49                     	;# 
   712  1F4A                     	;# 
   713  1F4E                     	;# 
   714  1F4F                     	;# 
   715  1F50                     	;# 
   716  1F51                     	;# 
   717  1F52                     	;# 
   718  1F53                     	;# 
   719  1F54                     	;# 
   720  1F55                     	;# 
   721  1FE4                     	;# 
   722  1FE5                     	;# 
   723  1FE6                     	;# 
   724  1FE7                     	;# 
   725  1FE8                     	;# 
   726  1FE8                     	;# 
   727  1FE9                     	;# 
   728  1FEA                     	;# 
   729  1FEA                     	;# 
   730  1FEB                     	;# 
   731  1FED                     	;# 
   732  1FEE                     	;# 
   733  1FEF                     	;# 
   734  0000                     	;# 
   735  0001                     	;# 
   736  0002                     	;# 
   737  0003                     	;# 
   738  0004                     	;# 
   739  0005                     	;# 
   740  0006                     	;# 
   741  0007                     	;# 
   742  0008                     	;# 
   743  0009                     	;# 
   744  000A                     	;# 
   745  000B                     	;# 
   746  000C                     	;# 
   747  000D                     	;# 
   748  000E                     	;# 
   749  0012                     	;# 
   750  0013                     	;# 
   751  0014                     	;# 
   752  0018                     	;# 
   753  0019                     	;# 
   754  001A                     	;# 
   755  009B                     	;# 
   756  009B                     	;# 
   757  009C                     	;# 
   758  009D                     	;# 
   759  009E                     	;# 
   760  009F                     	;# 
   761  0119                     	;# 
   762  0119                     	;# 
   763  0119                     	;# 
   764  011A                     	;# 
   765  011A                     	;# 
   766  011A                     	;# 
   767  011B                     	;# 
   768  011B                     	;# 
   769  011B                     	;# 
   770  011B                     	;# 
   771  011B                     	;# 
   772  011C                     	;# 
   773  011C                     	;# 
   774  011C                     	;# 
   775  011D                     	;# 
   776  011D                     	;# 
   777  011D                     	;# 
   778  011E                     	;# 
   779  011E                     	;# 
   780  011E                     	;# 
   781  011F                     	;# 
   782  011F                     	;# 
   783  011F                     	;# 
   784  011F                     	;# 
   785  011F                     	;# 
   786  018C                     	;# 
   787  018D                     	;# 
   788  018E                     	;# 
   789  018F                     	;# 
   790  0190                     	;# 
   791  0191                     	;# 
   792  0192                     	;# 
   793  020C                     	;# 
   794  020C                     	;# 
   795  020D                     	;# 
   796  020E                     	;# 
   797  020F                     	;# 
   798  020F                     	;# 
   799  0210                     	;# 
   800  0210                     	;# 
   801  0211                     	;# 
   802  0211                     	;# 
   803  028C                     	;# 
   804  028C                     	;# 
   805  028D                     	;# 
   806  028D                     	;# 
   807  028E                     	;# 
   808  028F                     	;# 
   809  0290                     	;# 
   810  0291                     	;# 
   811  030C                     	;# 
   812  030C                     	;# 
   813  030D                     	;# 
   814  030E                     	;# 
   815  030F                     	;# 
   816  0310                     	;# 
   817  0310                     	;# 
   818  0311                     	;# 
   819  0312                     	;# 
   820  0313                     	;# 
   821  0314                     	;# 
   822  0314                     	;# 
   823  0315                     	;# 
   824  0316                     	;# 
   825  0318                     	;# 
   826  0318                     	;# 
   827  0319                     	;# 
   828  031A                     	;# 
   829  031C                     	;# 
   830  031C                     	;# 
   831  031D                     	;# 
   832  031E                     	;# 
   833  038C                     	;# 
   834  038C                     	;# 
   835  038D                     	;# 
   836  038E                     	;# 
   837  058C                     	;# 
   838  058C                     	;# 
   839  058D                     	;# 
   840  058E                     	;# 
   841  058F                     	;# 
   842  058F                     	;# 
   843  0590                     	;# 
   844  0591                     	;# 
   845  0592                     	;# 
   846  0593                     	;# 
   847  059C                     	;# 
   848  059C                     	;# 
   849  059D                     	;# 
   850  059D                     	;# 
   851  059E                     	;# 
   852  059F                     	;# 
   853  060C                     	;# 
   854  060D                     	;# 
   855  060E                     	;# 
   856  060F                     	;# 
   857  0610                     	;# 
   858  0611                     	;# 
   859  0612                     	;# 
   860  0613                     	;# 
   861  0614                     	;# 
   862  070C                     	;# 
   863  070D                     	;# 
   864  070E                     	;# 
   865  070F                     	;# 
   866  0710                     	;# 
   867  0711                     	;# 
   868  0712                     	;# 
   869  0713                     	;# 
   870  0716                     	;# 
   871  0717                     	;# 
   872  0718                     	;# 
   873  0719                     	;# 
   874  071A                     	;# 
   875  071B                     	;# 
   876  071C                     	;# 
   877  071D                     	;# 
   878  0796                     	;# 
   879  0797                     	;# 
   880  0798                     	;# 
   881  0799                     	;# 
   882  079A                     	;# 
   883  079B                     	;# 
   884  080C                     	;# 
   885  080D                     	;# 
   886  080E                     	;# 
   887  080F                     	;# 
   888  0810                     	;# 
   889  0811                     	;# 
   890  0812                     	;# 
   891  0813                     	;# 
   892  0814                     	;# 
   893  081A                     	;# 
   894  081A                     	;# 
   895  081B                     	;# 
   896  081C                     	;# 
   897  081C                     	;# 
   898  081D                     	;# 
   899  081E                     	;# 
   900  081F                     	;# 
   901  088C                     	;# 
   902  088D                     	;# 
   903  088E                     	;# 
   904  088F                     	;# 
   905  0890                     	;# 
   906  0891                     	;# 
   907  0892                     	;# 
   908  0893                     	;# 
   909  0895                     	;# 
   910  0896                     	;# 
   911  090C                     	;# 
   912  090E                     	;# 
   913  090F                     	;# 
   914  091F                     	;# 
   915  098F                     	;# 
   916  098F                     	;# 
   917  0990                     	;# 
   918  0991                     	;# 
   919  0992                     	;# 
   920  0993                     	;# 
   921  0994                     	;# 
   922  0995                     	;# 
   923  0996                     	;# 
   924  0997                     	;# 
   925  0A19                     	;# 
   926  0A19                     	;# 
   927  0A1A                     	;# 
   928  0A1A                     	;# 
   929  0A1B                     	;# 
   930  0A1B                     	;# 
   931  0A1B                     	;# 
   932  0A1C                     	;# 
   933  0A1C                     	;# 
   934  0A1D                     	;# 
   935  0A1D                     	;# 
   936  0A1E                     	;# 
   937  0A1E                     	;# 
   938  0A1F                     	;# 
   939  0A1F                     	;# 
   940  0A1F                     	;# 
   941  1E0F                     	;# 
   942  1E10                     	;# 
   943  1E11                     	;# 
   944  1E12                     	;# 
   945  1E13                     	;# 
   946  1E14                     	;# 
   947  1E15                     	;# 
   948  1E16                     	;# 
   949  1E17                     	;# 
   950  1E18                     	;# 
   951  1E19                     	;# 
   952  1E1A                     	;# 
   953  1E1B                     	;# 
   954  1E1C                     	;# 
   955  1E1D                     	;# 
   956  1E1E                     	;# 
   957  1E1F                     	;# 
   958  1E20                     	;# 
   959  1E21                     	;# 
   960  1E22                     	;# 
   961  1E23                     	;# 
   962  1E24                     	;# 
   963  1E25                     	;# 
   964  1E26                     	;# 
   965  1E27                     	;# 
   966  1E28                     	;# 
   967  1E29                     	;# 
   968  1E2A                     	;# 
   969  1E2B                     	;# 
   970  1E2C                     	;# 
   971  1E2D                     	;# 
   972  1E2E                     	;# 
   973  1E2F                     	;# 
   974  1E30                     	;# 
   975  1E31                     	;# 
   976  1E32                     	;# 
   977  1E33                     	;# 
   978  1E34                     	;# 
   979  1E35                     	;# 
   980  1E36                     	;# 
   981  1E37                     	;# 
   982  1E8F                     	;# 
   983  1E90                     	;# 
   984  1E91                     	;# 
   985  1E92                     	;# 
   986  1E93                     	;# 
   987  1E9C                     	;# 
   988  1EA1                     	;# 
   989  1EA2                     	;# 
   990  1EB1                     	;# 
   991  1EBB                     	;# 
   992  1EBC                     	;# 
   993  1EBD                     	;# 
   994  1EBE                     	;# 
   995  1EC3                     	;# 
   996  1EC5                     	;# 
   997  1EC6                     	;# 
   998  1EC7                     	;# 
   999  1ECB                     	;# 
  1000  1ECC                     	;# 
  1001  1ECD                     	;# 
  1002  1ECE                     	;# 
  1003  1F10                     	;# 
  1004  1F11                     	;# 
  1005  1F12                     	;# 
  1006  1F13                     	;# 
  1007  1F14                     	;# 
  1008  1F15                     	;# 
  1009  1F1C                     	;# 
  1010  1F1D                     	;# 
  1011  1F1E                     	;# 
  1012  1F1F                     	;# 
  1013  1F20                     	;# 
  1014  1F21                     	;# 
  1015  1F22                     	;# 
  1016  1F23                     	;# 
  1017  1F24                     	;# 
  1018  1F25                     	;# 
  1019  1F26                     	;# 
  1020  1F27                     	;# 
  1021  1F38                     	;# 
  1022  1F39                     	;# 
  1023  1F3A                     	;# 
  1024  1F3B                     	;# 
  1025  1F3C                     	;# 
  1026  1F3D                     	;# 
  1027  1F3E                     	;# 
  1028  1F3F                     	;# 
  1029  1F43                     	;# 
  1030  1F44                     	;# 
  1031  1F45                     	;# 
  1032  1F46                     	;# 
  1033  1F47                     	;# 
  1034  1F48                     	;# 
  1035  1F49                     	;# 
  1036  1F4A                     	;# 
  1037  1F4E                     	;# 
  1038  1F4F                     	;# 
  1039  1F50                     	;# 
  1040  1F51                     	;# 
  1041  1F52                     	;# 
  1042  1F53                     	;# 
  1043  1F54                     	;# 
  1044  1F55                     	;# 
  1045  1FE4                     	;# 
  1046  1FE5                     	;# 
  1047  1FE6                     	;# 
  1048  1FE7                     	;# 
  1049  1FE8                     	;# 
  1050  1FE8                     	;# 
  1051  1FE9                     	;# 
  1052  1FEA                     	;# 
  1053  1FEA                     	;# 
  1054  1FEB                     	;# 
  1055  1FED                     	;# 
  1056  1FEE                     	;# 
  1057  1FEF                     	;# 
  1058  0000                     	;# 
  1059  0001                     	;# 
  1060  0002                     	;# 
  1061  0003                     	;# 
  1062  0004                     	;# 
  1063  0005                     	;# 
  1064  0006                     	;# 
  1065  0007                     	;# 
  1066  0008                     	;# 
  1067  0009                     	;# 
  1068  000A                     	;# 
  1069  000B                     	;# 
  1070  000C                     	;# 
  1071  000D                     	;# 
  1072  000E                     	;# 
  1073  0012                     	;# 
  1074  0013                     	;# 
  1075  0014                     	;# 
  1076  0018                     	;# 
  1077  0019                     	;# 
  1078  001A                     	;# 
  1079  009B                     	;# 
  1080  009B                     	;# 
  1081  009C                     	;# 
  1082  009D                     	;# 
  1083  009E                     	;# 
  1084  009F                     	;# 
  1085  0119                     	;# 
  1086  0119                     	;# 
  1087  0119                     	;# 
  1088  011A                     	;# 
  1089  011A                     	;# 
  1090  011A                     	;# 
  1091  011B                     	;# 
  1092  011B                     	;# 
  1093  011B                     	;# 
  1094  011B                     	;# 
  1095  011B                     	;# 
  1096  011C                     	;# 
  1097  011C                     	;# 
  1098  011C                     	;# 
  1099  011D                     	;# 
  1100  011D                     	;# 
  1101  011D                     	;# 
  1102  011E                     	;# 
  1103  011E                     	;# 
  1104  011E                     	;# 
  1105  011F                     	;# 
  1106  011F                     	;# 
  1107  011F                     	;# 
  1108  011F                     	;# 
  1109  011F                     	;# 
  1110  018C                     	;# 
  1111  018D                     	;# 
  1112  018E                     	;# 
  1113  018F                     	;# 
  1114  0190                     	;# 
  1115  0191                     	;# 
  1116  0192                     	;# 
  1117  020C                     	;# 
  1118  020C                     	;# 
  1119  020D                     	;# 
  1120  020E                     	;# 
  1121  020F                     	;# 
  1122  020F                     	;# 
  1123  0210                     	;# 
  1124  0210                     	;# 
  1125  0211                     	;# 
  1126  0211                     	;# 
  1127  028C                     	;# 
  1128  028C                     	;# 
  1129  028D                     	;# 
  1130  028D                     	;# 
  1131  028E                     	;# 
  1132  028F                     	;# 
  1133  0290                     	;# 
  1134  0291                     	;# 
  1135  030C                     	;# 
  1136  030C                     	;# 
  1137  030D                     	;# 
  1138  030E                     	;# 
  1139  030F                     	;# 
  1140  0310                     	;# 
  1141  0310                     	;# 
  1142  0311                     	;# 
  1143  0312                     	;# 
  1144  0313                     	;# 
  1145  0314                     	;# 
  1146  0314                     	;# 
  1147  0315                     	;# 
  1148  0316                     	;# 
  1149  0318                     	;# 
  1150  0318                     	;# 
  1151  0319                     	;# 
  1152  031A                     	;# 
  1153  031C                     	;# 
  1154  031C                     	;# 
  1155  031D                     	;# 
  1156  031E                     	;# 
  1157  038C                     	;# 
  1158  038C                     	;# 
  1159  038D                     	;# 
  1160  038E                     	;# 
  1161  058C                     	;# 
  1162  058C                     	;# 
  1163  058D                     	;# 
  1164  058E                     	;# 
  1165  058F                     	;# 
  1166  058F                     	;# 
  1167  0590                     	;# 
  1168  0591                     	;# 
  1169  0592                     	;# 
  1170  0593                     	;# 
  1171  059C                     	;# 
  1172  059C                     	;# 
  1173  059D                     	;# 
  1174  059D                     	;# 
  1175  059E                     	;# 
  1176  059F                     	;# 
  1177  060C                     	;# 
  1178  060D                     	;# 
  1179  060E                     	;# 
  1180  060F                     	;# 
  1181  0610                     	;# 
  1182  0611                     	;# 
  1183  0612                     	;# 
  1184  0613                     	;# 
  1185  0614                     	;# 
  1186  070C                     	;# 
  1187  070D                     	;# 
  1188  070E                     	;# 
  1189  070F                     	;# 
  1190  0710                     	;# 
  1191  0711                     	;# 
  1192  0712                     	;# 
  1193  0713                     	;# 
  1194  0716                     	;# 
  1195  0717                     	;# 
  1196  0718                     	;# 
  1197  0719                     	;# 
  1198  071A                     	;# 
  1199  071B                     	;# 
  1200  071C                     	;# 
  1201  071D                     	;# 
  1202  0796                     	;# 
  1203  0797                     	;# 
  1204  0798                     	;# 
  1205  0799                     	;# 
  1206  079A                     	;# 
  1207  079B                     	;# 
  1208  080C                     	;# 
  1209  080D                     	;# 
  1210  080E                     	;# 
  1211  080F                     	;# 
  1212  0810                     	;# 
  1213  0811                     	;# 
  1214  0812                     	;# 
  1215  0813                     	;# 
  1216  0814                     	;# 
  1217  081A                     	;# 
  1218  081A                     	;# 
  1219  081B                     	;# 
  1220  081C                     	;# 
  1221  081C                     	;# 
  1222  081D                     	;# 
  1223  081E                     	;# 
  1224  081F                     	;# 
  1225  088C                     	;# 
  1226  088D                     	;# 
  1227  088E                     	;# 
  1228  088F                     	;# 
  1229  0890                     	;# 
  1230  0891                     	;# 
  1231  0892                     	;# 
  1232  0893                     	;# 
  1233  0895                     	;# 
  1234  0896                     	;# 
  1235  090C                     	;# 
  1236  090E                     	;# 
  1237  090F                     	;# 
  1238  091F                     	;# 
  1239  098F                     	;# 
  1240  098F                     	;# 
  1241  0990                     	;# 
  1242  0991                     	;# 
  1243  0992                     	;# 
  1244  0993                     	;# 
  1245  0994                     	;# 
  1246  0995                     	;# 
  1247  0996                     	;# 
  1248  0997                     	;# 
  1249  0A19                     	;# 
  1250  0A19                     	;# 
  1251  0A1A                     	;# 
  1252  0A1A                     	;# 
  1253  0A1B                     	;# 
  1254  0A1B                     	;# 
  1255  0A1B                     	;# 
  1256  0A1C                     	;# 
  1257  0A1C                     	;# 
  1258  0A1D                     	;# 
  1259  0A1D                     	;# 
  1260  0A1E                     	;# 
  1261  0A1E                     	;# 
  1262  0A1F                     	;# 
  1263  0A1F                     	;# 
  1264  0A1F                     	;# 
  1265  1E0F                     	;# 
  1266  1E10                     	;# 
  1267  1E11                     	;# 
  1268  1E12                     	;# 
  1269  1E13                     	;# 
  1270  1E14                     	;# 
  1271  1E15                     	;# 
  1272  1E16                     	;# 
  1273  1E17                     	;# 
  1274  1E18                     	;# 
  1275  1E19                     	;# 
  1276  1E1A                     	;# 
  1277  1E1B                     	;# 
  1278  1E1C                     	;# 
  1279  1E1D                     	;# 
  1280  1E1E                     	;# 
  1281  1E1F                     	;# 
  1282  1E20                     	;# 
  1283  1E21                     	;# 
  1284  1E22                     	;# 
  1285  1E23                     	;# 
  1286  1E24                     	;# 
  1287  1E25                     	;# 
  1288  1E26                     	;# 
  1289  1E27                     	;# 
  1290  1E28                     	;# 
  1291  1E29                     	;# 
  1292  1E2A                     	;# 
  1293  1E2B                     	;# 
  1294  1E2C                     	;# 
  1295  1E2D                     	;# 
  1296  1E2E                     	;# 
  1297  1E2F                     	;# 
  1298  1E30                     	;# 
  1299  1E31                     	;# 
  1300  1E32                     	;# 
  1301  1E33                     	;# 
  1302  1E34                     	;# 
  1303  1E35                     	;# 
  1304  1E36                     	;# 
  1305  1E37                     	;# 
  1306  1E8F                     	;# 
  1307  1E90                     	;# 
  1308  1E91                     	;# 
  1309  1E92                     	;# 
  1310  1E93                     	;# 
  1311  1E9C                     	;# 
  1312  1EA1                     	;# 
  1313  1EA2                     	;# 
  1314  1EB1                     	;# 
  1315  1EBB                     	;# 
  1316  1EBC                     	;# 
  1317  1EBD                     	;# 
  1318  1EBE                     	;# 
  1319  1EC3                     	;# 
  1320  1EC5                     	;# 
  1321  1EC6                     	;# 
  1322  1EC7                     	;# 
  1323  1ECB                     	;# 
  1324  1ECC                     	;# 
  1325  1ECD                     	;# 
  1326  1ECE                     	;# 
  1327  1F10                     	;# 
  1328  1F11                     	;# 
  1329  1F12                     	;# 
  1330  1F13                     	;# 
  1331  1F14                     	;# 
  1332  1F15                     	;# 
  1333  1F1C                     	;# 
  1334  1F1D                     	;# 
  1335  1F1E                     	;# 
  1336  1F1F                     	;# 
  1337  1F20                     	;# 
  1338  1F21                     	;# 
  1339  1F22                     	;# 
  1340  1F23                     	;# 
  1341  1F24                     	;# 
  1342  1F25                     	;# 
  1343  1F26                     	;# 
  1344  1F27                     	;# 
  1345  1F38                     	;# 
  1346  1F39                     	;# 
  1347  1F3A                     	;# 
  1348  1F3B                     	;# 
  1349  1F3C                     	;# 
  1350  1F3D                     	;# 
  1351  1F3E                     	;# 
  1352  1F3F                     	;# 
  1353  1F43                     	;# 
  1354  1F44                     	;# 
  1355  1F45                     	;# 
  1356  1F46                     	;# 
  1357  1F47                     	;# 
  1358  1F48                     	;# 
  1359  1F49                     	;# 
  1360  1F4A                     	;# 
  1361  1F4E                     	;# 
  1362  1F4F                     	;# 
  1363  1F50                     	;# 
  1364  1F51                     	;# 
  1365  1F52                     	;# 
  1366  1F53                     	;# 
  1367  1F54                     	;# 
  1368  1F55                     	;# 
  1369  1FE4                     	;# 
  1370  1FE5                     	;# 
  1371  1FE6                     	;# 
  1372  1FE7                     	;# 
  1373  1FE8                     	;# 
  1374  1FE8                     	;# 
  1375  1FE9                     	;# 
  1376  1FEA                     	;# 
  1377  1FEA                     	;# 
  1378  1FEB                     	;# 
  1379  1FED                     	;# 
  1380  1FEE                     	;# 
  1381  1FEF                     	;# 
  1382  0000                     	;# 
  1383  0001                     	;# 
  1384  0002                     	;# 
  1385  0003                     	;# 
  1386  0004                     	;# 
  1387  0005                     	;# 
  1388  0006                     	;# 
  1389  0007                     	;# 
  1390  0008                     	;# 
  1391  0009                     	;# 
  1392  000A                     	;# 
  1393  000B                     	;# 
  1394  000C                     	;# 
  1395  000D                     	;# 
  1396  000E                     	;# 
  1397  0012                     	;# 
  1398  0013                     	;# 
  1399  0014                     	;# 
  1400  0018                     	;# 
  1401  0019                     	;# 
  1402  001A                     	;# 
  1403  009B                     	;# 
  1404  009B                     	;# 
  1405  009C                     	;# 
  1406  009D                     	;# 
  1407  009E                     	;# 
  1408  009F                     	;# 
  1409  0119                     	;# 
  1410  0119                     	;# 
  1411  0119                     	;# 
  1412  011A                     	;# 
  1413  011A                     	;# 
  1414  011A                     	;# 
  1415  011B                     	;# 
  1416  011B                     	;# 
  1417  011B                     	;# 
  1418  011B                     	;# 
  1419  011B                     	;# 
  1420  011C                     	;# 
  1421  011C                     	;# 
  1422  011C                     	;# 
  1423  011D                     	;# 
  1424  011D                     	;# 
  1425  011D                     	;# 
  1426  011E                     	;# 
  1427  011E                     	;# 
  1428  011E                     	;# 
  1429  011F                     	;# 
  1430  011F                     	;# 
  1431  011F                     	;# 
  1432  011F                     	;# 
  1433  011F                     	;# 
  1434  018C                     	;# 
  1435  018D                     	;# 
  1436  018E                     	;# 
  1437  018F                     	;# 
  1438  0190                     	;# 
  1439  0191                     	;# 
  1440  0192                     	;# 
  1441  020C                     	;# 
  1442  020C                     	;# 
  1443  020D                     	;# 
  1444  020E                     	;# 
  1445  020F                     	;# 
  1446  020F                     	;# 
  1447  0210                     	;# 
  1448  0210                     	;# 
  1449  0211                     	;# 
  1450  0211                     	;# 
  1451  028C                     	;# 
  1452  028C                     	;# 
  1453  028D                     	;# 
  1454  028D                     	;# 
  1455  028E                     	;# 
  1456  028F                     	;# 
  1457  0290                     	;# 
  1458  0291                     	;# 
  1459  030C                     	;# 
  1460  030C                     	;# 
  1461  030D                     	;# 
  1462  030E                     	;# 
  1463  030F                     	;# 
  1464  0310                     	;# 
  1465  0310                     	;# 
  1466  0311                     	;# 
  1467  0312                     	;# 
  1468  0313                     	;# 
  1469  0314                     	;# 
  1470  0314                     	;# 
  1471  0315                     	;# 
  1472  0316                     	;# 
  1473  0318                     	;# 
  1474  0318                     	;# 
  1475  0319                     	;# 
  1476  031A                     	;# 
  1477  031C                     	;# 
  1478  031C                     	;# 
  1479  031D                     	;# 
  1480  031E                     	;# 
  1481  038C                     	;# 
  1482  038C                     	;# 
  1483  038D                     	;# 
  1484  038E                     	;# 
  1485  058C                     	;# 
  1486  058C                     	;# 
  1487  058D                     	;# 
  1488  058E                     	;# 
  1489  058F                     	;# 
  1490  058F                     	;# 
  1491  0590                     	;# 
  1492  0591                     	;# 
  1493  0592                     	;# 
  1494  0593                     	;# 
  1495  059C                     	;# 
  1496  059C                     	;# 
  1497  059D                     	;# 
  1498  059D                     	;# 
  1499  059E                     	;# 
  1500  059F                     	;# 
  1501  060C                     	;# 
  1502  060D                     	;# 
  1503  060E                     	;# 
  1504  060F                     	;# 
  1505  0610                     	;# 
  1506  0611                     	;# 
  1507  0612                     	;# 
  1508  0613                     	;# 
  1509  0614                     	;# 
  1510  070C                     	;# 
  1511  070D                     	;# 
  1512  070E                     	;# 
  1513  070F                     	;# 
  1514  0710                     	;# 
  1515  0711                     	;# 
  1516  0712                     	;# 
  1517  0713                     	;# 
  1518  0716                     	;# 
  1519  0717                     	;# 
  1520  0718                     	;# 
  1521  0719                     	;# 
  1522  071A                     	;# 
  1523  071B                     	;# 
  1524  071C                     	;# 
  1525  071D                     	;# 
  1526  0796                     	;# 
  1527  0797                     	;# 
  1528  0798                     	;# 
  1529  0799                     	;# 
  1530  079A                     	;# 
  1531  079B                     	;# 
  1532  080C                     	;# 
  1533  080D                     	;# 
  1534  080E                     	;# 
  1535  080F                     	;# 
  1536  0810                     	;# 
  1537  0811                     	;# 
  1538  0812                     	;# 
  1539  0813                     	;# 
  1540  0814                     	;# 
  1541  081A                     	;# 
  1542  081A                     	;# 
  1543  081B                     	;# 
  1544  081C                     	;# 
  1545  081C                     	;# 
  1546  081D                     	;# 
  1547  081E                     	;# 
  1548  081F                     	;# 
  1549  088C                     	;# 
  1550  088D                     	;# 
  1551  088E                     	;# 
  1552  088F                     	;# 
  1553  0890                     	;# 
  1554  0891                     	;# 
  1555  0892                     	;# 
  1556  0893                     	;# 
  1557  0895                     	;# 
  1558  0896                     	;# 
  1559  090C                     	;# 
  1560  090E                     	;# 
  1561  090F                     	;# 
  1562  091F                     	;# 
  1563  098F                     	;# 
  1564  098F                     	;# 
  1565  0990                     	;# 
  1566  0991                     	;# 
  1567  0992                     	;# 
  1568  0993                     	;# 
  1569  0994                     	;# 
  1570  0995                     	;# 
  1571  0996                     	;# 
  1572  0997                     	;# 
  1573  0A19                     	;# 
  1574  0A19                     	;# 
  1575  0A1A                     	;# 
  1576  0A1A                     	;# 
  1577  0A1B                     	;# 
  1578  0A1B                     	;# 
  1579  0A1B                     	;# 
  1580  0A1C                     	;# 
  1581  0A1C                     	;# 
  1582  0A1D                     	;# 
  1583  0A1D                     	;# 
  1584  0A1E                     	;# 
  1585  0A1E                     	;# 
  1586  0A1F                     	;# 
  1587  0A1F                     	;# 
  1588  0A1F                     	;# 
  1589  1E0F                     	;# 
  1590  1E10                     	;# 
  1591  1E11                     	;# 
  1592  1E12                     	;# 
  1593  1E13                     	;# 
  1594  1E14                     	;# 
  1595  1E15                     	;# 
  1596  1E16                     	;# 
  1597  1E17                     	;# 
  1598  1E18                     	;# 
  1599  1E19                     	;# 
  1600  1E1A                     	;# 
  1601  1E1B                     	;# 
  1602  1E1C                     	;# 
  1603  1E1D                     	;# 
  1604  1E1E                     	;# 
  1605  1E1F                     	;# 
  1606  1E20                     	;# 
  1607  1E21                     	;# 
  1608  1E22                     	;# 
  1609  1E23                     	;# 
  1610  1E24                     	;# 
  1611  1E25                     	;# 
  1612  1E26                     	;# 
  1613  1E27                     	;# 
  1614  1E28                     	;# 
  1615  1E29                     	;# 
  1616  1E2A                     	;# 
  1617  1E2B                     	;# 
  1618  1E2C                     	;# 
  1619  1E2D                     	;# 
  1620  1E2E                     	;# 
  1621  1E2F                     	;# 
  1622  1E30                     	;# 
  1623  1E31                     	;# 
  1624  1E32                     	;# 
  1625  1E33                     	;# 
  1626  1E34                     	;# 
  1627  1E35                     	;# 
  1628  1E36                     	;# 
  1629  1E37                     	;# 
  1630  1E8F                     	;# 
  1631  1E90                     	;# 
  1632  1E91                     	;# 
  1633  1E92                     	;# 
  1634  1E93                     	;# 
  1635  1E9C                     	;# 
  1636  1EA1                     	;# 
  1637  1EA2                     	;# 
  1638  1EB1                     	;# 
  1639  1EBB                     	;# 
  1640  1EBC                     	;# 
  1641  1EBD                     	;# 
  1642  1EBE                     	;# 
  1643  1EC3                     	;# 
  1644  1EC5                     	;# 
  1645  1EC6                     	;# 
  1646  1EC7                     	;# 
  1647  1ECB                     	;# 
  1648  1ECC                     	;# 
  1649  1ECD                     	;# 
  1650  1ECE                     	;# 
  1651  1F10                     	;# 
  1652  1F11                     	;# 
  1653  1F12                     	;# 
  1654  1F13                     	;# 
  1655  1F14                     	;# 
  1656  1F15                     	;# 
  1657  1F1C                     	;# 
  1658  1F1D                     	;# 
  1659  1F1E                     	;# 
  1660  1F1F                     	;# 
  1661  1F20                     	;# 
  1662  1F21                     	;# 
  1663  1F22                     	;# 
  1664  1F23                     	;# 
  1665  1F24                     	;# 
  1666  1F25                     	;# 
  1667  1F26                     	;# 
  1668  1F27                     	;# 
  1669  1F38                     	;# 
  1670  1F39                     	;# 
  1671  1F3A                     	;# 
  1672  1F3B                     	;# 
  1673  1F3C                     	;# 
  1674  1F3D                     	;# 
  1675  1F3E                     	;# 
  1676  1F3F                     	;# 
  1677  1F43                     	;# 
  1678  1F44                     	;# 
  1679  1F45                     	;# 
  1680  1F46                     	;# 
  1681  1F47                     	;# 
  1682  1F48                     	;# 
  1683  1F49                     	;# 
  1684  1F4A                     	;# 
  1685  1F4E                     	;# 
  1686  1F4F                     	;# 
  1687  1F50                     	;# 
  1688  1F51                     	;# 
  1689  1F52                     	;# 
  1690  1F53                     	;# 
  1691  1F54                     	;# 
  1692  1F55                     	;# 
  1693  1FE4                     	;# 
  1694  1FE5                     	;# 
  1695  1FE6                     	;# 
  1696  1FE7                     	;# 
  1697  1FE8                     	;# 
  1698  1FE8                     	;# 
  1699  1FE9                     	;# 
  1700  1FEA                     	;# 
  1701  1FEA                     	;# 
  1702  1FEB                     	;# 
  1703  1FED                     	;# 
  1704  1FEE                     	;# 
  1705  1FEF                     	;# 
  1706  0000                     	;# 
  1707  0001                     	;# 
  1708  0002                     	;# 
  1709  0003                     	;# 
  1710  0004                     	;# 
  1711  0005                     	;# 
  1712  0006                     	;# 
  1713  0007                     	;# 
  1714  0008                     	;# 
  1715  0009                     	;# 
  1716  000A                     	;# 
  1717  000B                     	;# 
  1718  000C                     	;# 
  1719  000D                     	;# 
  1720  000E                     	;# 
  1721  0012                     	;# 
  1722  0013                     	;# 
  1723  0014                     	;# 
  1724  0018                     	;# 
  1725  0019                     	;# 
  1726  001A                     	;# 
  1727  009B                     	;# 
  1728  009B                     	;# 
  1729  009C                     	;# 
  1730  009D                     	;# 
  1731  009E                     	;# 
  1732  009F                     	;# 
  1733  0119                     	;# 
  1734  0119                     	;# 
  1735  0119                     	;# 
  1736  011A                     	;# 
  1737  011A                     	;# 
  1738  011A                     	;# 
  1739  011B                     	;# 
  1740  011B                     	;# 
  1741  011B                     	;# 
  1742  011B                     	;# 
  1743  011B                     	;# 
  1744  011C                     	;# 
  1745  011C                     	;# 
  1746  011C                     	;# 
  1747  011D                     	;# 
  1748  011D                     	;# 
  1749  011D                     	;# 
  1750  011E                     	;# 
  1751  011E                     	;# 
  1752  011E                     	;# 
  1753  011F                     	;# 
  1754  011F                     	;# 
  1755  011F                     	;# 
  1756  011F                     	;# 
  1757  011F                     	;# 
  1758  018C                     	;# 
  1759  018D                     	;# 
  1760  018E                     	;# 
  1761  018F                     	;# 
  1762  0190                     	;# 
  1763  0191                     	;# 
  1764  0192                     	;# 
  1765  020C                     	;# 
  1766  020C                     	;# 
  1767  020D                     	;# 
  1768  020E                     	;# 
  1769  020F                     	;# 
  1770  020F                     	;# 
  1771  0210                     	;# 
  1772  0210                     	;# 
  1773  0211                     	;# 
  1774  0211                     	;# 
  1775  028C                     	;# 
  1776  028C                     	;# 
  1777  028D                     	;# 
  1778  028D                     	;# 
  1779  028E                     	;# 
  1780  028F                     	;# 
  1781  0290                     	;# 
  1782  0291                     	;# 
  1783  030C                     	;# 
  1784  030C                     	;# 
  1785  030D                     	;# 
  1786  030E                     	;# 
  1787  030F                     	;# 
  1788  0310                     	;# 
  1789  0310                     	;# 
  1790  0311                     	;# 
  1791  0312                     	;# 
  1792  0313                     	;# 
  1793  0314                     	;# 
  1794  0314                     	;# 
  1795  0315                     	;# 
  1796  0316                     	;# 
  1797  0318                     	;# 
  1798  0318                     	;# 
  1799  0319                     	;# 
  1800  031A                     	;# 
  1801  031C                     	;# 
  1802  031C                     	;# 
  1803  031D                     	;# 
  1804  031E                     	;# 
  1805  038C                     	;# 
  1806  038C                     	;# 
  1807  038D                     	;# 
  1808  038E                     	;# 
  1809  058C                     	;# 
  1810  058C                     	;# 
  1811  058D                     	;# 
  1812  058E                     	;# 
  1813  058F                     	;# 
  1814  058F                     	;# 
  1815  0590                     	;# 
  1816  0591                     	;# 
  1817  0592                     	;# 
  1818  0593                     	;# 
  1819  059C                     	;# 
  1820  059C                     	;# 
  1821  059D                     	;# 
  1822  059D                     	;# 
  1823  059E                     	;# 
  1824  059F                     	;# 
  1825  060C                     	;# 
  1826  060D                     	;# 
  1827  060E                     	;# 
  1828  060F                     	;# 
  1829  0610                     	;# 
  1830  0611                     	;# 
  1831  0612                     	;# 
  1832  0613                     	;# 
  1833  0614                     	;# 
  1834  070C                     	;# 
  1835  070D                     	;# 
  1836  070E                     	;# 
  1837  070F                     	;# 
  1838  0710                     	;# 
  1839  0711                     	;# 
  1840  0712                     	;# 
  1841  0713                     	;# 
  1842  0716                     	;# 
  1843  0717                     	;# 
  1844  0718                     	;# 
  1845  0719                     	;# 
  1846  071A                     	;# 
  1847  071B                     	;# 
  1848  071C                     	;# 
  1849  071D                     	;# 
  1850  0796                     	;# 
  1851  0797                     	;# 
  1852  0798                     	;# 
  1853  0799                     	;# 
  1854  079A                     	;# 
  1855  079B                     	;# 
  1856  080C                     	;# 
  1857  080D                     	;# 
  1858  080E                     	;# 
  1859  080F                     	;# 
  1860  0810                     	;# 
  1861  0811                     	;# 
  1862  0812                     	;# 
  1863  0813                     	;# 
  1864  0814                     	;# 
  1865  081A                     	;# 
  1866  081A                     	;# 
  1867  081B                     	;# 
  1868  081C                     	;# 
  1869  081C                     	;# 
  1870  081D                     	;# 
  1871  081E                     	;# 
  1872  081F                     	;# 
  1873  088C                     	;# 
  1874  088D                     	;# 
  1875  088E                     	;# 
  1876  088F                     	;# 
  1877  0890                     	;# 
  1878  0891                     	;# 
  1879  0892                     	;# 
  1880  0893                     	;# 
  1881  0895                     	;# 
  1882  0896                     	;# 
  1883  090C                     	;# 
  1884  090E                     	;# 
  1885  090F                     	;# 
  1886  091F                     	;# 
  1887  098F                     	;# 
  1888  098F                     	;# 
  1889  0990                     	;# 
  1890  0991                     	;# 
  1891  0992                     	;# 
  1892  0993                     	;# 
  1893  0994                     	;# 
  1894  0995                     	;# 
  1895  0996                     	;# 
  1896  0997                     	;# 
  1897  0A19                     	;# 
  1898  0A19                     	;# 
  1899  0A1A                     	;# 
  1900  0A1A                     	;# 
  1901  0A1B                     	;# 
  1902  0A1B                     	;# 
  1903  0A1B                     	;# 
  1904  0A1C                     	;# 
  1905  0A1C                     	;# 
  1906  0A1D                     	;# 
  1907  0A1D                     	;# 
  1908  0A1E                     	;# 
  1909  0A1E                     	;# 
  1910  0A1F                     	;# 
  1911  0A1F                     	;# 
  1912  0A1F                     	;# 
  1913  1E0F                     	;# 
  1914  1E10                     	;# 
  1915  1E11                     	;# 
  1916  1E12                     	;# 
  1917  1E13                     	;# 
  1918  1E14                     	;# 
  1919  1E15                     	;# 
  1920  1E16                     	;# 
  1921  1E17                     	;# 
  1922  1E18                     	;# 
  1923  1E19                     	;# 
  1924  1E1A                     	;# 
  1925  1E1B                     	;# 
  1926  1E1C                     	;# 
  1927  1E1D                     	;# 
  1928  1E1E                     	;# 
  1929  1E1F                     	;# 
  1930  1E20                     	;# 
  1931  1E21                     	;# 
  1932  1E22                     	;# 
  1933  1E23                     	;# 
  1934  1E24                     	;# 
  1935  1E25                     	;# 
  1936  1E26                     	;# 
  1937  1E27                     	;# 
  1938  1E28                     	;# 
  1939  1E29                     	;# 
  1940  1E2A                     	;# 
  1941  1E2B                     	;# 
  1942  1E2C                     	;# 
  1943  1E2D                     	;# 
  1944  1E2E                     	;# 
  1945  1E2F                     	;# 
  1946  1E30                     	;# 
  1947  1E31                     	;# 
  1948  1E32                     	;# 
  1949  1E33                     	;# 
  1950  1E34                     	;# 
  1951  1E35                     	;# 
  1952  1E36                     	;# 
  1953  1E37                     	;# 
  1954  1E8F                     	;# 
  1955  1E90                     	;# 
  1956  1E91                     	;# 
  1957  1E92                     	;# 
  1958  1E93                     	;# 
  1959  1E9C                     	;# 
  1960  1EA1                     	;# 
  1961  1EA2                     	;# 
  1962  1EB1                     	;# 
  1963  1EBB                     	;# 
  1964  1EBC                     	;# 
  1965  1EBD                     	;# 
  1966  1EBE                     	;# 
  1967  1EC3                     	;# 
  1968  1EC5                     	;# 
  1969  1EC6                     	;# 
  1970  1EC7                     	;# 
  1971  1ECB                     	;# 
  1972  1ECC                     	;# 
  1973  1ECD                     	;# 
  1974  1ECE                     	;# 
  1975  1F10                     	;# 
  1976  1F11                     	;# 
  1977  1F12                     	;# 
  1978  1F13                     	;# 
  1979  1F14                     	;# 
  1980  1F15                     	;# 
  1981  1F1C                     	;# 
  1982  1F1D                     	;# 
  1983  1F1E                     	;# 
  1984  1F1F                     	;# 
  1985  1F20                     	;# 
  1986  1F21                     	;# 
  1987  1F22                     	;# 
  1988  1F23                     	;# 
  1989  1F24                     	;# 
  1990  1F25                     	;# 
  1991  1F26                     	;# 
  1992  1F27                     	;# 
  1993  1F38                     	;# 
  1994  1F39                     	;# 
  1995  1F3A                     	;# 
  1996  1F3B                     	;# 
  1997  1F3C                     	;# 
  1998  1F3D                     	;# 
  1999  1F3E                     	;# 
  2000  1F3F                     	;# 
  2001  1F43                     	;# 
  2002  1F44                     	;# 
  2003  1F45                     	;# 
  2004  1F46                     	;# 
  2005  1F47                     	;# 
  2006  1F48                     	;# 
  2007  1F49                     	;# 
  2008  1F4A                     	;# 
  2009  1F4E                     	;# 
  2010  1F4F                     	;# 
  2011  1F50                     	;# 
  2012  1F51                     	;# 
  2013  1F52                     	;# 
  2014  1F53                     	;# 
  2015  1F54                     	;# 
  2016  1F55                     	;# 
  2017  1FE4                     	;# 
  2018  1FE5                     	;# 
  2019  1FE6                     	;# 
  2020  1FE7                     	;# 
  2021  1FE8                     	;# 
  2022  1FE8                     	;# 
  2023  1FE9                     	;# 
  2024  1FEA                     	;# 
  2025  1FEA                     	;# 
  2026  1FEB                     	;# 
  2027  1FED                     	;# 
  2028  1FEE                     	;# 
  2029  1FEF                     	;# 
  2030                           
  2031 ;; Function _EUSART2_DefaultFramingErrorHandler is unused but had its address taken
  2032  0000                     
  2033 ;; Function _EUSART2_DefaultOverrunErrorHandler is unused but had its address taken
  2034  0000                     
  2035 ;; Function _EUSART2_DefaultErrorHandler is unused but had its address taken
  2036  0000                     
  2037                           	psect	nvBANK0
  2038  005B                     __pnvBANK0:
  2039  005B                     _EUSART1_RxDefaultInterruptHandler:
  2040  005B                     	ds	2
  2041  005D                     _EUSART1_TxDefaultInterruptHandler:
  2042  005D                     	ds	2
  2043  005F                     _eusart1TxBufferRemaining:
  2044  005F                     	ds	1
  2045                           
  2046                           	psect	nvBANK1
  2047  00E4                     __pnvBANK1:
  2048  00E4                     _EUSART2_ErrorHandler:
  2049  00E4                     	ds	2
  2050  00E6                     _EUSART2_OverrunErrorHandler:
  2051  00E6                     	ds	2
  2052  00E8                     _EUSART2_FramingErrorHandler:
  2053  00E8                     	ds	2
  2054  00EA                     _EUSART1_ErrorHandler:
  2055  00EA                     	ds	2
  2056  00EC                     _EUSART1_OverrunErrorHandler:
  2057  00EC                     	ds	2
  2058  00EE                     _EUSART1_FramingErrorHandler:
  2059  00EE                     	ds	2
  2060  000B                     _INTCONbits	set	11
  2061  0014                     _TRISC	set	20
  2062  0013                     _TRISB	set	19
  2063  0012                     _TRISA	set	18
  2064  001A                     _LATC	set	26
  2065  0019                     _LATB	set	25
  2066  0018                     _LATA	set	24
  2067  0119                     _RC1REG	set	281
  2068  011D                     _RC1STAbits	set	285
  2069  011A                     _TX1REG	set	282
  2070  011E                     _TX1STAbits	set	286
  2071  011C                     _SP1BRGH	set	284
  2072  011B                     _SP1BRGL	set	283
  2073  011E                     _TX1STA	set	286
  2074  011D                     _RC1STA	set	285
  2075  011F                     _BAUD1CON	set	287
  2076  070F                     _PIR3bits	set	1807
  2077  0719                     _PIE3bits	set	1817
  2078  079B                     _PMD5	set	1947
  2079  079A                     _PMD4	set	1946
  2080  0799                     _PMD3	set	1945
  2081  0798                     _PMD2	set	1944
  2082  0797                     _PMD1	set	1943
  2083  0796                     _PMD0	set	1942
  2084  0892                     _OSCTUNE	set	2194
  2085  0890                     _OSCSTAT	set	2192
  2086  0893                     _OSCFRQ	set	2195
  2087  0891                     _OSCEN	set	2193
  2088  088F                     _OSCCON3	set	2191
  2089  088D                     _OSCCON1	set	2189
  2090  0A1A                     _TX2REG	set	2586
  2091  0A19                     _RC2REG	set	2585
  2092  0A1D                     _RC2STAbits	set	2589
  2093  0A1E                     _TX2STAbits	set	2590
  2094  0A1C                     _SP2BRGH	set	2588
  2095  0A1B                     _SP2BRGL	set	2587
  2096  0A1E                     _TX2STA	set	2590
  2097  0A1D                     _RC2STA	set	2589
  2098  0A1F                     _BAUD2CON	set	2591
  2099  1ECB                     _RX1DTPPS	set	7883
  2100  1ECD                     _RX2DTPPS	set	7885
  2101  1F1F                     _RB7PPS	set	7967
  2102  1F20                     _RC0PPS	set	7968
  2103  1F52                     _INLVLC	set	8018
  2104  1F47                     _INLVLB	set	8007
  2105  1F3C                     _INLVLA	set	7996
  2106  1F51                     _SLRCONC	set	8017
  2107  1F46                     _SLRCONB	set	8006
  2108  1F3B                     _SLRCONA	set	7995
  2109  1F50                     _ODCONC	set	8016
  2110  1F45                     _ODCONB	set	8005
  2111  1F3A                     _ODCONA	set	7994
  2112  1F4F                     _WPUC	set	8015
  2113  1F39                     _WPUA	set	7993
  2114  1F44                     _WPUB	set	8004
  2115  1F38                     _ANSELA	set	7992
  2116  1F43                     _ANSELB	set	8003
  2117  1F4E                     _ANSELC	set	8014
  2118                           
  2119                           	psect	stringtext1
  2120  0265                     __pstringtext1:
  2121  0265                     STR_1:
  2122  0265  3454               	retlw	84	;'T'
  2123  0266  3468               	retlw	104	;'h'
  2124  0267  3469               	retlw	105	;'i'
  2125  0268  3473               	retlw	115	;'s'
  2126  0269  3420               	retlw	32	;' '
  2127  026A  3469               	retlw	105	;'i'
  2128  026B  3473               	retlw	115	;'s'
  2129  026C  3420               	retlw	32	;' '
  2130  026D  3461               	retlw	97	;'a'
  2131  026E  3420               	retlw	32	;' '
  2132  026F  3476               	retlw	118	;'v'
  2133  0270  3461               	retlw	97	;'a'
  2134  0271  346C               	retlw	108	;'l'
  2135  0272  3469               	retlw	105	;'i'
  2136  0273  3464               	retlw	100	;'d'
  2137  0274  3420               	retlw	32	;' '
  2138  0275  3473               	retlw	115	;'s'
  2139  0276  3465               	retlw	101	;'e'
  2140  0277  346E               	retlw	110	;'n'
  2141  0278  3474               	retlw	116	;'t'
  2142  0279  3465               	retlw	101	;'e'
  2143  027A  346E               	retlw	110	;'n'
  2144  027B  3463               	retlw	99	;'c'
  2145  027C  3465               	retlw	101	;'e'
  2146  027D  3420               	retlw	32	;' '
  2147  027E  3474               	retlw	116	;'t'
  2148  027F  3468               	retlw	104	;'h'
  2149  0280  3461               	retlw	97	;'a'
  2150  0281  3474               	retlw	116	;'t'
  2151  0282  3420               	retlw	32	;' '
  2152  0283  3473               	retlw	115	;'s'
  2153  0284  3474               	retlw	116	;'t'
  2154  0285  3461               	retlw	97	;'a'
  2155  0286  3472               	retlw	114	;'r'
  2156  0287  3474               	retlw	116	;'t'
  2157  0288  3473               	retlw	115	;'s'
  2158  0289  3420               	retlw	32	;' '
  2159  028A  3477               	retlw	119	;'w'
  2160  028B  3469               	retlw	105	;'i'
  2161  028C  3474               	retlw	116	;'t'
  2162  028D  3468               	retlw	104	;'h'
  2163  028E  343A               	retlw	58	;':'
  2164  028F  3420               	retlw	32	;' '
  2165  0290  3425               	retlw	37	;'%'
  2166  0291  3463               	retlw	99	;'c'
  2167  0292  3421               	retlw	33	;'!'
  2168  0293  340D               	retlw	13
  2169  0294  340A               	retlw	10
  2170  0295  3400               	retlw	0
  2171                           
  2172                           	psect	stringtext2
  2173  0000                     __pstringtext2:
  2174                           
  2175                           	psect	cinit
  2176  002D                     start_initialization:	
  2177                           ; #config settings
  2178                           
  2179  002D                     __initialization:
  2180                           
  2181                           ; Clear objects allocated to COMMON
  2182  002D  01FC               	clrf	__pbssCOMMON& (0+127)
  2183                           
  2184                           ; Clear objects allocated to BANK0
  2185  002E  3045               	movlw	low __pbssBANK0
  2186  002F  0084               	movwf	4
  2187  0030  3000               	movlw	high __pbssBANK0
  2188  0031  0085               	movwf	5
  2189  0032  3016               	movlw	22
  2190  0033  3184  240D  3180   	fcall	clear_ram0
  2191                           
  2192                           ; Clear objects allocated to BANK1
  2193  0036  30A0               	movlw	low __pbssBANK1
  2194  0037  0084               	movwf	4
  2195  0038  3000               	movlw	high __pbssBANK1
  2196  0039  0085               	movwf	5
  2197  003A  3044               	movlw	68
  2198  003B  3184  240D  3180   	fcall	clear_ram0
  2199  003E                     end_of_initialization:	
  2200                           ;End of C runtime variable initialization code
  2201                           
  2202  003E                     __end_of__initialization:
  2203  003E  107E               	bcf	int$flags,0	;clear compiler interrupt flag (level 1)
  2204  003F  0140               	movlb	0
  2205  0040  3181  295B         	ljmp	_main	;jump to C main() function
  2206                           
  2207                           	psect	bssCOMMON
  2208  007C                     __pbssCOMMON:
  2209  007C                     _eusart1RxHead:
  2210  007C                     	ds	1
  2211                           
  2212                           	psect	bssBANK0
  2213  0045                     __pbssBANK0:
  2214  0045                     _eusart1RxStatusBuffer:
  2215  0045                     	ds	8
  2216  004D                     _nout:
  2217  004D                     	ds	2
  2218  004F                     _width:
  2219  004F                     	ds	2
  2220  0051                     _prec:
  2221  0051                     	ds	2
  2222  0053                     _flags:
  2223  0053                     	ds	2
  2224  0055                     _eusart2RxLastError:
  2225  0055                     	ds	1
  2226  0056                     _eusart1RxLastError:
  2227  0056                     	ds	1
  2228  0057                     _eusart1RxCount:
  2229  0057                     	ds	1
  2230  0058                     _eusart1RxTail:
  2231  0058                     	ds	1
  2232  0059                     _eusart1TxTail:
  2233  0059                     	ds	1
  2234  005A                     _eusart1TxHead:
  2235  005A                     	ds	1
  2236                           
  2237                           	psect	bssBANK1
  2238  00A0                     __pbssBANK1:
  2239  00A0                     _dbuf:
  2240  00A0                     	ds	32
  2241  00C0                     _ptr:
  2242  00C0                     	ds	20
  2243  00D4                     _eusart1RxBuffer:
  2244  00D4                     	ds	8
  2245  00DC                     _eusart1TxBuffer:
  2246  00DC                     	ds	8
  2247                           
  2248                           	psect	clrtext
  2249  040D                     clear_ram0:	
  2250                           ;	Called with FSR0 containing the base address, and
  2251                           ;	WREG with the size to clear
  2252                           
  2253  040D  0064               	clrwdt	;clear the watchdog before getting into this loop
  2254  040E                     clrloop0:
  2255  040E  0180               	clrf	0	;clear RAM location pointed to by FSR
  2256  040F  3101               	addfsr 0,1
  2257  0410  0B89               	decfsz	9,f	;Have we reached the end of clearing yet?
  2258  0411  2C0E               	goto	clrloop0	;have we reached the end yet?
  2259  0412  3400               	retlw	0	;all done for this memory range, return
  2260                           
  2261                           	psect	cstackBANK2
  2262  0120                     __pcstackBANK2:
  2263  0120                     	ds	2
  2264  0122                     main@Buffer:
  2265                           
  2266                           ; 10 bytes @ 0x2
  2267  0122                     	ds	11
  2268  012D                     main@char_counter:
  2269                           
  2270                           ; 2 bytes @ 0xD
  2271  012D                     	ds	2
  2272  012F                     main@read:
  2273                           
  2274                           ; 2 bytes @ 0xF
  2275  012F                     	ds	2
  2276                           
  2277                           	psect	cstackCOMMON
  2278  0070                     __pcstackCOMMON:
  2279  0070                     ?_EUSART1_Receive_ISR:
  2280  0070                     ?_EUSART1_Transmit_ISR:	
  2281                           ; 1 bytes @ 0x0
  2282                           
  2283  0070                     ??_EUSART1_Transmit_ISR:	
  2284                           ; 1 bytes @ 0x0
  2285                           
  2286  0070                     ?_EUSART1_DefaultFramingErrorHandler:	
  2287                           ; 1 bytes @ 0x0
  2288                           
  2289  0070                     ??_EUSART1_DefaultFramingErrorHandler:	
  2290                           ; 1 bytes @ 0x0
  2291                           
  2292  0070                     ?_EUSART1_DefaultOverrunErrorHandler:	
  2293                           ; 1 bytes @ 0x0
  2294                           
  2295  0070                     ??_EUSART1_DefaultOverrunErrorHandler:	
  2296                           ; 1 bytes @ 0x0
  2297                           
  2298  0070                     ?_EUSART1_DefaultErrorHandler:	
  2299                           ; 1 bytes @ 0x0
  2300                           
  2301  0070                     ?_EUSART1_RxDataHandler:	
  2302                           ; 1 bytes @ 0x0
  2303                           
  2304  0070                     ??_EUSART1_RxDataHandler:	
  2305                           ; 1 bytes @ 0x0
  2306                           
  2307  0070                     ?_PMD_Initialize:	
  2308                           ; 1 bytes @ 0x0
  2309                           
  2310  0070                     ?_OSCILLATOR_Initialize:	
  2311                           ; 1 bytes @ 0x0
  2312                           
  2313  0070                     ?_EUSART2_Initialize:	
  2314                           ; 1 bytes @ 0x0
  2315                           
  2316  0070                     ?_PIN_MANAGER_Initialize:	
  2317                           ; 1 bytes @ 0x0
  2318                           
  2319  0070                     ?_EUSART1_Initialize:	
  2320                           ; 1 bytes @ 0x0
  2321                           
  2322  0070                     ?_EUSART1_Read:	
  2323                           ; 1 bytes @ 0x0
  2324                           
  2325  0070                     ?_EUSART1_Write:	
  2326                           ; 1 bytes @ 0x0
  2327                           
  2328  0070                     ?_putch:	
  2329                           ; 1 bytes @ 0x0
  2330                           
  2331  0070                     ?_SYSTEM_Initialize:	
  2332                           ; 1 bytes @ 0x0
  2333                           
  2334  0070                     ?_main:	
  2335                           ; 1 bytes @ 0x0
  2336                           
  2337  0070                     ?_INTERRUPT_InterruptManager:	
  2338                           ; 1 bytes @ 0x0
  2339                           
  2340                           
  2341                           ; 1 bytes @ 0x0
  2342  0070                     	ds	1
  2343  0071                     ?_EUSART1_SetRxInterruptHandler:
  2344  0071                     ??_EUSART1_Receive_ISR:	
  2345                           ; 1 bytes @ 0x1
  2346                           
  2347  0071                     ?_EUSART1_SetTxInterruptHandler:	
  2348                           ; 1 bytes @ 0x1
  2349                           
  2350  0071                     ?_EUSART1_SetFramingErrorHandler:	
  2351                           ; 1 bytes @ 0x1
  2352                           
  2353  0071                     ?_EUSART1_SetOverrunErrorHandler:	
  2354                           ; 1 bytes @ 0x1
  2355                           
  2356  0071                     ?_EUSART1_SetErrorHandler:	
  2357                           ; 1 bytes @ 0x1
  2358                           
  2359  0071                     ??_EUSART1_DefaultErrorHandler:	
  2360                           ; 1 bytes @ 0x1
  2361                           
  2362  0071                     ??_PMD_Initialize:	
  2363                           ; 1 bytes @ 0x1
  2364                           
  2365  0071                     ??_OSCILLATOR_Initialize:	
  2366                           ; 1 bytes @ 0x1
  2367                           
  2368  0071                     ?_EUSART2_SetFramingErrorHandler:	
  2369                           ; 1 bytes @ 0x1
  2370                           
  2371  0071                     ?_EUSART2_SetOverrunErrorHandler:	
  2372                           ; 1 bytes @ 0x1
  2373                           
  2374  0071                     ?_EUSART2_SetErrorHandler:	
  2375                           ; 1 bytes @ 0x1
  2376                           
  2377  0071                     ?_strchr:	
  2378                           ; 1 bytes @ 0x1
  2379                           
  2380  0071                     ??_PIN_MANAGER_Initialize:	
  2381                           ; 1 bytes @ 0x1
  2382                           
  2383  0071                     ??_EUSART1_Read:	
  2384                           ; 1 bytes @ 0x1
  2385                           
  2386  0071                     ??_EUSART1_Write:	
  2387                           ; 1 bytes @ 0x1
  2388                           
  2389  0071                     ?_parsing:	
  2390                           ; 1 bytes @ 0x1
  2391                           
  2392  0071                     ??_INTERRUPT_InterruptManager:	
  2393                           ; 1 bytes @ 0x1
  2394                           
  2395  0071                     EUSART1_SetFramingErrorHandler@interruptHandler:	
  2396                           ; 1 bytes @ 0x1
  2397                           
  2398  0071                     EUSART1_SetOverrunErrorHandler@interruptHandler:	
  2399                           ; 2 bytes @ 0x1
  2400                           
  2401  0071                     EUSART1_SetErrorHandler@interruptHandler:	
  2402                           ; 2 bytes @ 0x1
  2403                           
  2404  0071                     EUSART1_SetTxInterruptHandler@interruptHandler:	
  2405                           ; 2 bytes @ 0x1
  2406                           
  2407  0071                     EUSART1_SetRxInterruptHandler@interruptHandler:	
  2408                           ; 2 bytes @ 0x1
  2409                           
  2410  0071                     EUSART2_SetFramingErrorHandler@interruptHandler:	
  2411                           ; 2 bytes @ 0x1
  2412                           
  2413  0071                     EUSART2_SetOverrunErrorHandler@interruptHandler:	
  2414                           ; 2 bytes @ 0x1
  2415                           
  2416  0071                     EUSART2_SetErrorHandler@interruptHandler:	
  2417                           ; 2 bytes @ 0x1
  2418                           
  2419  0071                     parsing@Value:	
  2420                           ; 2 bytes @ 0x1
  2421                           
  2422  0071                     strchr@c:	
  2423                           ; 2 bytes @ 0x1
  2424                           
  2425                           
  2426                           ; 2 bytes @ 0x1
  2427  0071                     	ds	1
  2428  0072                     EUSART1_Read@readValue:
  2429  0072                     EUSART1_Write@txData:	
  2430                           ; 1 bytes @ 0x2
  2431                           
  2432                           
  2433                           ; 1 bytes @ 0x2
  2434  0072                     	ds	1
  2435  0073                     ??_EUSART1_SetRxInterruptHandler:
  2436  0073                     ??_EUSART1_SetTxInterruptHandler:	
  2437                           ; 1 bytes @ 0x3
  2438                           
  2439  0073                     ??_EUSART1_SetFramingErrorHandler:	
  2440                           ; 1 bytes @ 0x3
  2441                           
  2442  0073                     ??_EUSART1_SetOverrunErrorHandler:	
  2443                           ; 1 bytes @ 0x3
  2444                           
  2445  0073                     ??_EUSART1_SetErrorHandler:	
  2446                           ; 1 bytes @ 0x3
  2447                           
  2448  0073                     ??_EUSART2_Initialize:	
  2449                           ; 1 bytes @ 0x3
  2450                           
  2451  0073                     ??_EUSART2_SetFramingErrorHandler:	
  2452                           ; 1 bytes @ 0x3
  2453                           
  2454  0073                     ??_EUSART2_SetOverrunErrorHandler:	
  2455                           ; 1 bytes @ 0x3
  2456                           
  2457  0073                     ??_EUSART2_SetErrorHandler:	
  2458                           ; 1 bytes @ 0x3
  2459                           
  2460  0073                     ??_strchr:	
  2461                           ; 1 bytes @ 0x3
  2462                           
  2463  0073                     ??_EUSART1_Initialize:	
  2464                           ; 1 bytes @ 0x3
  2465                           
  2466  0073                     ??_putch:	
  2467                           ; 1 bytes @ 0x3
  2468                           
  2469  0073                     putch@txData:	
  2470                           ; 1 bytes @ 0x3
  2471                           
  2472  0073                     parsing@Buffer:	
  2473                           ; 1 bytes @ 0x3
  2474                           
  2475  0073                     strchr@s:	
  2476                           ; 1 bytes @ 0x3
  2477                           
  2478                           
  2479                           ; 1 bytes @ 0x3
  2480  0073                     	ds	1
  2481  0074                     ??_SYSTEM_Initialize:
  2482  0074                     ?_fputc:	
  2483                           ; 1 bytes @ 0x4
  2484                           
  2485  0074                     parsing@char_counter:	
  2486                           ; 2 bytes @ 0x4
  2487                           
  2488  0074                     fputc@c:	
  2489                           ; 2 bytes @ 0x4
  2490                           
  2491                           
  2492                           ; 2 bytes @ 0x4
  2493  0074                     	ds	2
  2494  0076                     ??_parsing:
  2495  0076                     fputc@fp:	
  2496                           ; 1 bytes @ 0x6
  2497                           
  2498                           
  2499                           ; 1 bytes @ 0x6
  2500  0076                     	ds	1
  2501  0077                     ??_fputc:
  2502                           
  2503                           ; 1 bytes @ 0x7
  2504  0077                     	ds	5
  2505                           
  2506                           	psect	cstackBANK0
  2507  0020                     __pcstackBANK0:
  2508  0020                     ?_ctoa:
  2509  0020                     ctoa@c:	
  2510                           ; 2 bytes @ 0x0
  2511                           
  2512                           
  2513                           ; 1 bytes @ 0x0
  2514  0020                     	ds	2
  2515  0022                     ??_ctoa:
  2516                           
  2517                           ; 1 bytes @ 0x2
  2518  0022                     	ds	3
  2519  0025                     ctoa@l:
  2520                           
  2521                           ; 2 bytes @ 0x5
  2522  0025                     	ds	2
  2523  0027                     ctoa@w:
  2524                           
  2525                           ; 2 bytes @ 0x7
  2526  0027                     	ds	2
  2527  0029                     ctoa@fp:
  2528                           
  2529                           ; 1 bytes @ 0x9
  2530  0029                     	ds	1
  2531  002A                     ?_vfpfcnvrt:
  2532  002A                     vfpfcnvrt@fmt:	
  2533                           ; 2 bytes @ 0xA
  2534                           
  2535                           
  2536                           ; 1 bytes @ 0xA
  2537  002A                     	ds	1
  2538  002B                     vfpfcnvrt@ap:
  2539                           
  2540                           ; 1 bytes @ 0xB
  2541  002B                     	ds	1
  2542  002C                     ??_vfpfcnvrt:
  2543                           
  2544                           ; 1 bytes @ 0xC
  2545  002C                     	ds	5
  2546  0031                     vfpfcnvrt@c:
  2547                           
  2548                           ; 1 bytes @ 0x11
  2549  0031                     	ds	1
  2550  0032                     vfpfcnvrt@fp:
  2551                           
  2552                           ; 1 bytes @ 0x12
  2553  0032                     	ds	1
  2554  0033                     ?_vfprintf:
  2555  0033                     vfprintf@fmt:	
  2556                           ; 2 bytes @ 0x13
  2557                           
  2558                           
  2559                           ; 2 bytes @ 0x13
  2560  0033                     	ds	2
  2561  0035                     vfprintf@ap:
  2562                           
  2563                           ; 1 bytes @ 0x15
  2564  0035                     	ds	1
  2565  0036                     ??_vfprintf:
  2566                           
  2567                           ; 1 bytes @ 0x16
  2568  0036                     	ds	2
  2569  0038                     vfprintf@fp:
  2570                           
  2571                           ; 1 bytes @ 0x18
  2572  0038                     	ds	1
  2573  0039                     vfprintf@cfmt:
  2574                           
  2575                           ; 2 bytes @ 0x19
  2576  0039                     	ds	2
  2577  003B                     ?_printf:
  2578  003B                     printf@fmt:	
  2579                           ; 2 bytes @ 0x1B
  2580                           
  2581                           
  2582                           ; 2 bytes @ 0x1B
  2583  003B                     	ds	4
  2584  003F                     ??_printf:
  2585                           
  2586                           ; 1 bytes @ 0x1F
  2587  003F                     	ds	3
  2588  0042                     printf@ap:
  2589                           
  2590                           ; 1 bytes @ 0x22
  2591  0042                     	ds	1
  2592  0043                     ??_main:
  2593                           
  2594                           ; 1 bytes @ 0x23
  2595  0043                     	ds	2
  2596                           
  2597                           	psect	maintext
  2598  015B                     __pmaintext:	
  2599 ;;
  2600 ;;Main: autosize = 0, tempsize = 2, incstack = 0, save=0
  2601 ;;
  2602 ;; *************** function _main *****************
  2603 ;; Defined at:
  2604 ;;		line 99 in file "main.c"
  2605 ;; Parameters:    Size  Location     Type
  2606 ;;		None
  2607 ;; Auto vars:     Size  Location     Type
  2608 ;;  Buffer         10    2[BANK2 ] unsigned char [10]
  2609 ;;  read            2   15[BANK2 ] unsigned short 
  2610 ;;  char_counter    2   13[BANK2 ] int 
  2611 ;;  i               2    0        int 
  2612 ;;  flag            1    0        _Bool 
  2613 ;; Return value:  Size  Location     Type
  2614 ;;                  1    wreg      void 
  2615 ;; Registers used:
  2616 ;;		wreg, fsr0l, fsr0h, fsr1l, fsr1h, status,2, status,0, pclath, cstack
  2617 ;; Tracked objects:
  2618 ;;		On entry : B3F/0
  2619 ;;		On exit  : 0/0
  2620 ;;		Unchanged: 0/0
  2621 ;; Data sizes:     COMMON   BANK0   BANK1   BANK2   BANK3   BANK4   BANK5   BANK6   BANK7   BANK8   BANK9  BANK10  BANK1
      +1  BANK12
  2622 ;;      Params:         0       0       0       0       0       0       0       0       0       0       0       0       
      +0       0
  2623 ;;      Locals:         0       0       0      17       0       0       0       0       0       0       0       0       
      +0       0
  2624 ;;      Temps:          0       2       0       0       0       0       0       0       0       0       0       0       
      +0       0
  2625 ;;      Totals:         0       2       0      17       0       0       0       0       0       0       0       0       
      +0       0
  2626 ;;Total ram usage:       19 bytes
  2627 ;; Hardware stack levels required when called:   11
  2628 ;; This function calls:
  2629 ;;		_EUSART1_Read
  2630 ;;		_SYSTEM_Initialize
  2631 ;;		_parsing
  2632 ;;		_printf
  2633 ;;		_strchr
  2634 ;; This function is called by:
  2635 ;;		Startup code after reset
  2636 ;; This function uses a non-reentrant model
  2637 ;;
  2638                           
  2639                           
  2640                           ;psect for function _main
  2641  015B                     _main:
  2642  015B                     l2075:	
  2643                           ;incstack = 0
  2644                           ; Regs used in _main: [wreg-fsr1h+status,2+status,0+pclath+cstack]
  2645                           
  2646                           
  2647                           ;main.c: 102:     SYSTEM_Initialize();
  2648  015B  3183  23EB  3181   	fcall	_SYSTEM_Initialize
  2649  015E                     l2077:
  2650  015E                     l2079:
  2651                           
  2652                           ;main.c: 120:     int char_counter = 0;
  2653  015E  0142               	movlb	2	; select bank2
  2654  015F  01AD               	clrf	main@char_counter^(0+256)
  2655  0160  01AE               	clrf	(main@char_counter+1)^(0+256)
  2656  0161                     l2081:
  2657  0161                     l2083:
  2658                           
  2659                           ;main.c: 126:         uint16_t read = EUSART1_Read();
  2660  0161  3182  22EB  3181   	fcall	_EUSART1_Read
  2661  0164  0140               	movlb	0	; select bank0
  2662  0165  00C3               	movwf	??_main
  2663  0166  01C4               	clrf	??_main+1
  2664  0167  0843               	movf	??_main,w
  2665  0168  0142               	movlb	2	; select bank2
  2666  0169  00AF               	movwf	main@read^(0+256)
  2667  016A  0140               	movlb	0	; select bank0
  2668  016B  0844               	movf	??_main+1,w
  2669  016C  0142               	movlb	2	; select bank2
  2670  016D  00B0               	movwf	(main@read+1)^(0+256)
  2671  016E                     l2085:
  2672                           
  2673                           ;main.c: 127:         uint8_t Buffer[10];;main.c: 128:         parsing(read, Buffer, cha
      +                          r_counter);
  2674  016E  0830               	movf	(main@read+1)^(0+256),w
  2675  016F  00F2               	movwf	parsing@Value+1
  2676  0170  082F               	movf	main@read^(0+256),w
  2677  0171  00F1               	movwf	parsing@Value
  2678  0172  3022               	movlw	(low (main@Buffer| (0+256)))& (0+255)
  2679  0173  0140               	movlb	0	; select bank0
  2680  0174  00C3               	movwf	??_main
  2681  0175  0843               	movf	??_main,w
  2682  0176  00F3               	movwf	parsing@Buffer
  2683  0177  0142               	movlb	2	; select bank2
  2684  0178  082E               	movf	(main@char_counter+1)^(0+256),w
  2685  0179  00F5               	movwf	parsing@char_counter+1
  2686  017A  082D               	movf	main@char_counter^(0+256),w
  2687  017B  00F4               	movwf	parsing@char_counter
  2688  017C  3183  233D  3181   	fcall	_parsing
  2689  017F                     l2087:
  2690                           
  2691                           ;main.c: 143:         if(*strchr(Buffer, '$') == '$'){
  2692  017F  3024               	movlw	36
  2693  0180  00F1               	movwf	strchr@c
  2694  0181  3000               	movlw	0
  2695  0182  00F2               	movwf	strchr@c+1
  2696  0183  3022               	movlw	(low (main@Buffer| (0+256)))& (0+255)
  2697  0184  3183  23C0  3181   	fcall	_strchr
  2698  0187  0086               	movwf	6
  2699  0188  3001               	movlw	1	; select bank2/3
  2700  0189  0087               	movwf	7
  2701  018A  3024               	movlw	36
  2702  018B  0601               	xorwf	1,w
  2703  018C  1D03               	btfss	3,2
  2704  018D  298F               	goto	u951
  2705  018E  2990               	goto	u950
  2706  018F                     u951:
  2707  018F  2961               	goto	l2083
  2708  0190                     u950:
  2709  0190                     l2089:
  2710                           
  2711                           ;main.c: 144:             printf("This is a valid sentence that starts with: %c!\r\n", *
      +                          strchr(Buffer, '$'));
  2712  0190  3065               	movlw	low (STR_1| (0+32768))
  2713  0191  0140               	movlb	0	; select bank0
  2714  0192  00BB               	movwf	printf@fmt
  2715  0193  3082               	movlw	high (STR_1| (0+32768))
  2716  0194  00BC               	movwf	printf@fmt+1
  2717  0195  3024               	movlw	36
  2718  0196  00F1               	movwf	strchr@c
  2719  0197  3000               	movlw	0
  2720  0198  00F2               	movwf	strchr@c+1
  2721  0199  3022               	movlw	(low (main@Buffer| (0+256)))& (0+255)
  2722  019A  3183  23C0  3181   	fcall	_strchr
  2723  019D  0086               	movwf	6
  2724  019E  3001               	movlw	1	; select bank2/3
  2725  019F  0087               	movwf	7
  2726  01A0  0801               	movf	1,w
  2727  01A1  0140               	movlb	0	; select bank0
  2728  01A2  00C3               	movwf	??_main
  2729  01A3  01C4               	clrf	??_main+1
  2730  01A4  0843               	movf	??_main,w
  2731  01A5  00BD               	movwf	?_printf+2
  2732  01A6  0844               	movf	??_main+1,w
  2733  01A7  00BE               	movwf	?_printf+3
  2734  01A8  3183  23D9  3181   	fcall	_printf
  2735  01AB  2961               	goto	l2083
  2736  01AC  3180  282B         	ljmp	start
  2737  01AE                     __end_of_main:
  2738                           
  2739                           	psect	text1
  2740  03C0                     __ptext1:	
  2741 ;; *************** function _strchr *****************
  2742 ;; Defined at:
  2743 ;;		line 3 in file "C:\Program Files\Microchip\xc8\v2.31\pic\sources\c99\common\strchr.c"
  2744 ;; Parameters:    Size  Location     Type
  2745 ;;  s               1    wreg     PTR const unsigned char 
  2746 ;;		 -> main@Buffer(10), 
  2747 ;;  c               2    1[COMMON] int 
  2748 ;; Auto vars:     Size  Location     Type
  2749 ;;  s               1    3[COMMON] PTR const unsigned char 
  2750 ;;		 -> main@Buffer(10), 
  2751 ;; Return value:  Size  Location     Type
  2752 ;;                  1    wreg      PTR unsigned char 
  2753 ;; Registers used:
  2754 ;;		wreg, fsr1l, fsr1h, status,2, status,0
  2755 ;; Tracked objects:
  2756 ;;		On entry : 0/0
  2757 ;;		On exit  : 0/0
  2758 ;;		Unchanged: 0/0
  2759 ;; Data sizes:     COMMON   BANK0   BANK1   BANK2   BANK3   BANK4   BANK5   BANK6   BANK7   BANK8   BANK9  BANK10  BANK1
      +1  BANK12
  2760 ;;      Params:         2       0       0       0       0       0       0       0       0       0       0       0       
      +0       0
  2761 ;;      Locals:         1       0       0       0       0       0       0       0       0       0       0       0       
      +0       0
  2762 ;;      Temps:          0       0       0       0       0       0       0       0       0       0       0       0       
      +0       0
  2763 ;;      Totals:         3       0       0       0       0       0       0       0       0       0       0       0       
      +0       0
  2764 ;;Total ram usage:        3 bytes
  2765 ;; Hardware stack levels used:    1
  2766 ;; Hardware stack levels required when called:    4
  2767 ;; This function calls:
  2768 ;;		Nothing
  2769 ;; This function is called by:
  2770 ;;		_main
  2771 ;; This function uses a non-reentrant model
  2772 ;;
  2773                           
  2774                           
  2775                           ;psect for function _strchr
  2776  03C0                     _strchr:
  2777                           
  2778                           ;incstack = 0
  2779                           ; Regs used in _strchr: [wreg+fsr1l+fsr1h+status,2+status,0]
  2780                           ;strchr@s stored from wreg
  2781  03C0  00F3               	movwf	strchr@s
  2782  03C1                     l994:
  2783  03C1                     l2053:
  2784  03C1  0873               	movf	strchr@s,w
  2785  03C2  0086               	movwf	6
  2786  03C3  3001               	movlw	1	; select bank2/3
  2787  03C4  0087               	movwf	7
  2788  03C5  0801               	movf	1,w
  2789  03C6  0671               	xorwf	strchr@c,w
  2790  03C7  1D03               	skipz
  2791  03C8  2BCA               	goto	u931
  2792  03C9  2BCB               	goto	u930
  2793  03CA                     u931:
  2794  03CA  2BCD               	goto	l2059
  2795  03CB                     u930:
  2796  03CB                     l2055:
  2797  03CB  0873               	movf	strchr@s,w
  2798  03CC  2BD8               	goto	l996
  2799  03CD                     l2059:
  2800  03CD  0873               	movf	strchr@s,w
  2801  03CE  0086               	movwf	6
  2802  03CF  3001               	movlw	1	; select bank2/3
  2803  03D0  0087               	movwf	7
  2804  03D1  0AF3               	incf	strchr@s,f
  2805  03D2  0801               	movf	1,w
  2806  03D3  1D03               	btfss	3,2
  2807  03D4  2BD6               	goto	u941
  2808  03D5  2BD7               	goto	u940
  2809  03D6                     u941:
  2810  03D6  2BC1               	goto	l994
  2811  03D7                     u940:
  2812  03D7                     l2061:
  2813  03D7  3000               	movlw	0
  2814  03D8                     l996:
  2815  03D8  0008               	return
  2816  03D9                     __end_of_strchr:
  2817                           
  2818                           	psect	text2
  2819  03D9                     __ptext2:	
  2820 ;; *************** function _printf *****************
  2821 ;; Defined at:
  2822 ;;		line 5 in file "C:\Program Files\Microchip\xc8\v2.31\pic\sources\c99\common\printf.c"
  2823 ;; Parameters:    Size  Location     Type
  2824 ;;  fmt             2   27[BANK0 ] PTR const unsigned char 
  2825 ;;		 -> STR_1(49), 
  2826 ;; Auto vars:     Size  Location     Type
  2827 ;;  ret             2    0        int 
  2828 ;;  ap              1   34[BANK0 ] PTR void [1]
  2829 ;;		 -> ?_printf(2), 
  2830 ;; Return value:  Size  Location     Type
  2831 ;;                  2   27[BANK0 ] int 
  2832 ;; Registers used:
  2833 ;;		wreg, fsr0l, fsr0h, fsr1l, fsr1h, status,2, status,0, pclath, cstack
  2834 ;; Tracked objects:
  2835 ;;		On entry : 0/0
  2836 ;;		On exit  : 0/0
  2837 ;;		Unchanged: 0/0
  2838 ;; Data sizes:     COMMON   BANK0   BANK1   BANK2   BANK3   BANK4   BANK5   BANK6   BANK7   BANK8   BANK9  BANK10  BANK1
      +1  BANK12
  2839 ;;      Params:         0       4       0       0       0       0       0       0       0       0       0       0       
      +0       0
  2840 ;;      Locals:         0       3       0       0       0       0       0       0       0       0       0       0       
      +0       0
  2841 ;;      Temps:          0       1       0       0       0       0       0       0       0       0       0       0       
      +0       0
  2842 ;;      Totals:         0       8       0       0       0       0       0       0       0       0       0       0       
      +0       0
  2843 ;;Total ram usage:        8 bytes
  2844 ;; Hardware stack levels used:    1
  2845 ;; Hardware stack levels required when called:   10
  2846 ;; This function calls:
  2847 ;;		_vfprintf
  2848 ;; This function is called by:
  2849 ;;		_main
  2850 ;; This function uses a non-reentrant model
  2851 ;;
  2852                           
  2853                           
  2854                           ;psect for function _printf
  2855  03D9                     _printf:
  2856  03D9                     l2065:	
  2857                           ;incstack = 0
  2858                           ; Regs used in _printf: [wreg-fsr1h+status,2+status,0+pclath+cstack]
  2859                           
  2860  03D9  303D               	movlw	(low ((?_printf| 0+2)))& (0+255)
  2861  03DA  0140               	movlb	0	; select bank0
  2862  03DB  00BF               	movwf	??_printf
  2863  03DC  083F               	movf	??_printf,w
  2864  03DD  00C2               	movwf	printf@ap
  2865  03DE                     l2067:
  2866  03DE  083C               	movf	printf@fmt+1,w
  2867  03DF  00B4               	movwf	vfprintf@fmt+1
  2868  03E0  083B               	movf	printf@fmt,w
  2869  03E1  00B3               	movwf	vfprintf@fmt
  2870  03E2  3042               	movlw	(low (printf@ap| 0))& (0+255)
  2871  03E3  00BF               	movwf	??_printf
  2872  03E4  083F               	movf	??_printf,w
  2873  03E5  00B5               	movwf	vfprintf@ap
  2874  03E6  3000               	movlw	0
  2875  03E7  3183  2315  3183   	fcall	_vfprintf
  2876  03EA                     l913:
  2877  03EA  0008               	return
  2878  03EB                     __end_of_printf:
  2879                           
  2880                           	psect	text3
  2881  0315                     __ptext3:	
  2882 ;; *************** function _vfprintf *****************
  2883 ;; Defined at:
  2884 ;;		line 1390 in file "C:\Program Files\Microchip\xc8\v2.31\pic\sources\c99\common\doprnt.c"
  2885 ;; Parameters:    Size  Location     Type
  2886 ;;  fp              1    wreg     PTR struct _IO_FILE
  2887 ;;		 -> NULL(0), 
  2888 ;;  fmt             2   19[BANK0 ] PTR const unsigned char 
  2889 ;;		 -> STR_1(49), 
  2890 ;;  ap              1   21[BANK0 ] PTR PTR void 
  2891 ;;		 -> printf@ap(1), 
  2892 ;; Auto vars:     Size  Location     Type
  2893 ;;  fp              1   24[BANK0 ] PTR struct _IO_FILE
  2894 ;;		 -> NULL(0), 
  2895 ;;  cfmt            2   25[BANK0 ] PTR unsigned char 
  2896 ;;		 -> STR_1(49), 
  2897 ;; Return value:  Size  Location     Type
  2898 ;;                  2   19[BANK0 ] int 
  2899 ;; Registers used:
  2900 ;;		wreg, fsr0l, fsr0h, fsr1l, fsr1h, status,2, status,0, pclath, cstack
  2901 ;; Tracked objects:
  2902 ;;		On entry : 0/0
  2903 ;;		On exit  : 0/0
  2904 ;;		Unchanged: 0/0
  2905 ;; Data sizes:     COMMON   BANK0   BANK1   BANK2   BANK3   BANK4   BANK5   BANK6   BANK7   BANK8   BANK9  BANK10  BANK1
      +1  BANK12
  2906 ;;      Params:         0       3       0       0       0       0       0       0       0       0       0       0       
      +0       0
  2907 ;;      Locals:         0       3       0       0       0       0       0       0       0       0       0       0       
      +0       0
  2908 ;;      Temps:          0       2       0       0       0       0       0       0       0       0       0       0       
      +0       0
  2909 ;;      Totals:         0       8       0       0       0       0       0       0       0       0       0       0       
      +0       0
  2910 ;;Total ram usage:        8 bytes
  2911 ;; Hardware stack levels used:    1
  2912 ;; Hardware stack levels required when called:    9
  2913 ;; This function calls:
  2914 ;;		_vfpfcnvrt
  2915 ;; This function is called by:
  2916 ;;		_printf
  2917 ;; This function uses a non-reentrant model
  2918 ;;
  2919                           
  2920                           
  2921                           ;psect for function _vfprintf
  2922  0315                     _vfprintf:
  2923                           
  2924                           ;incstack = 0
  2925                           ; Regs used in _vfprintf: [wreg-fsr1h+status,2+status,0+pclath+cstack]
  2926                           ;vfprintf@fp stored from wreg
  2927  0315  0140               	movlb	0	; select bank0
  2928  0316  00B8               	movwf	vfprintf@fp
  2929  0317                     l1993:
  2930                           
  2931                           ;C:\Program Files\Microchip\xc8\v2.31\pic\sources\c99\common\doprnt.c: 1390: int vfprint
      +                          f(FILE *fp, const char *fmt, va_list ap);C:\Program Files\Microchip\xc8\v2.31\pic\source
      +                          s\c99\common\doprnt.c: 1391: {;C:\Program Files\Microchip\xc8\v2.31\pic\sources\c99\comm
      +                          on\doprnt.c: 1393:     char *cfmt;;C:\Program Files\Microchip\xc8\v2.31\pic\sources\c99\
      +                          common\doprnt.c: 1395:     cfmt = (char *)fmt;
  2932  0317  0834               	movf	vfprintf@fmt+1,w
  2933  0318  00BA               	movwf	vfprintf@cfmt+1
  2934  0319  0833               	movf	vfprintf@fmt,w
  2935  031A  00B9               	movwf	vfprintf@cfmt
  2936  031B                     l1995:
  2937                           
  2938                           ;C:\Program Files\Microchip\xc8\v2.31\pic\sources\c99\common\doprnt.c: 1396:     nout = 
      +                          0;
  2939  031B  01CD               	clrf	_nout
  2940  031C  01CE               	clrf	_nout+1
  2941                           
  2942                           ;C:\Program Files\Microchip\xc8\v2.31\pic\sources\c99\common\doprnt.c: 1397:     while (
      +                          *cfmt) {
  2943  031D  2B2F               	goto	l1999
  2944  031E                     l1997:
  2945                           
  2946                           ;C:\Program Files\Microchip\xc8\v2.31\pic\sources\c99\common\doprnt.c: 1398:         nou
      +                          t += vfpfcnvrt(fp, &cfmt, ap);
  2947  031E  3039               	movlw	(low (vfprintf@cfmt| 0))& (0+255)
  2948  031F  00B6               	movwf	??_vfprintf
  2949  0320  0836               	movf	??_vfprintf,w
  2950  0321  00AA               	movwf	vfpfcnvrt@fmt
  2951  0322  0835               	movf	vfprintf@ap,w
  2952  0323  00B7               	movwf	??_vfprintf+1
  2953  0324  0837               	movf	??_vfprintf+1,w
  2954  0325  00AB               	movwf	vfpfcnvrt@ap
  2955  0326  0838               	movf	vfprintf@fp,w
  2956  0327  3180  2042  3183   	fcall	_vfpfcnvrt
  2957  032A  0140               	movlb	0	; select bank0
  2958  032B  082A               	movf	?_vfpfcnvrt,w
  2959  032C  07CD               	addwf	_nout,f
  2960  032D  082B               	movf	?_vfpfcnvrt+1,w
  2961  032E  3DCE               	addwfc	_nout+1,f
  2962  032F                     l1999:
  2963                           
  2964                           ;C:\Program Files\Microchip\xc8\v2.31\pic\sources\c99\common\doprnt.c: 1397:     while (
      +                          *cfmt) {
  2965  032F  0839               	movf	vfprintf@cfmt,w
  2966  0330  0084               	movwf	4
  2967  0331  083A               	movf	vfprintf@cfmt+1,w
  2968  0332  0085               	movwf	5
  2969  0333  0012               	moviw fsr0++
  2970  0334  1D03               	btfss	3,2
  2971  0335  2B37               	goto	u891
  2972  0336  2B38               	goto	u890
  2973  0337                     u891:
  2974  0337  2B1E               	goto	l1997
  2975  0338                     u890:
  2976  0338                     l2001:
  2977                           
  2978                           ;C:\Program Files\Microchip\xc8\v2.31\pic\sources\c99\common\doprnt.c: 1400:     return 
      +                          nout;
  2979  0338  084E               	movf	_nout+1,w
  2980  0339  00B4               	movwf	?_vfprintf+1
  2981  033A  084D               	movf	_nout,w
  2982  033B  00B3               	movwf	?_vfprintf
  2983  033C                     l971:
  2984  033C  0008               	return
  2985  033D                     __end_of_vfprintf:
  2986                           
  2987                           	psect	text4
  2988  0042                     __ptext4:	
  2989 ;; *************** function _vfpfcnvrt *****************
  2990 ;; Defined at:
  2991 ;;		line 692 in file "C:\Program Files\Microchip\xc8\v2.31\pic\sources\c99\common\doprnt.c"
  2992 ;; Parameters:    Size  Location     Type
  2993 ;;  fp              1    wreg     PTR struct _IO_FILE
  2994 ;;		 -> NULL(0), 
  2995 ;;  fmt             1   10[BANK0 ] PTR PTR unsigned char 
  2996 ;;		 -> vfprintf@cfmt(2), 
  2997 ;;  ap              1   11[BANK0 ] PTR PTR void 
  2998 ;;		 -> printf@ap(1), 
  2999 ;; Auto vars:     Size  Location     Type
  3000 ;;  fp              1   18[BANK0 ] PTR struct _IO_FILE
  3001 ;;		 -> NULL(0), 
  3002 ;;  llu             8    0        unsigned long long 
  3003 ;;  ll              8    0        long long 
  3004 ;;  f               4    0        long long 
  3005 ;;  ct              3    0        unsigned char [3]
  3006 ;;  vp              2    0        PTR void 
  3007 ;;  i               2    0        int 
  3008 ;;  done            2    0        int 
  3009 ;;  cp              2    0        PTR unsigned char 
  3010 ;;  c               1   17[BANK0 ] unsigned char 
  3011 ;; Return value:  Size  Location     Type
  3012 ;;                  2   10[BANK0 ] int 
  3013 ;; Registers used:
  3014 ;;		wreg, fsr0l, fsr0h, fsr1l, fsr1h, status,2, status,0, pclath, cstack
  3015 ;; Tracked objects:
  3016 ;;		On entry : 0/0
  3017 ;;		On exit  : 0/0
  3018 ;;		Unchanged: 0/0
  3019 ;; Data sizes:     COMMON   BANK0   BANK1   BANK2   BANK3   BANK4   BANK5   BANK6   BANK7   BANK8   BANK9  BANK10  BANK1
      +1  BANK12
  3020 ;;      Params:         0       2       0       0       0       0       0       0       0       0       0       0       
      +0       0
  3021 ;;      Locals:         0       2       0       0       0       0       0       0       0       0       0       0       
      +0       0
  3022 ;;      Temps:          0       5       0       0       0       0       0       0       0       0       0       0       
      +0       0
  3023 ;;      Totals:         0       9       0       0       0       0       0       0       0       0       0       0       
      +0       0
  3024 ;;Total ram usage:        9 bytes
  3025 ;; Hardware stack levels used:    1
  3026 ;; Hardware stack levels required when called:    8
  3027 ;; This function calls:
  3028 ;;		_ctoa
  3029 ;;		_fputc
  3030 ;; This function is called by:
  3031 ;;		_vfprintf
  3032 ;; This function uses a non-reentrant model
  3033 ;;
  3034                           
  3035                           
  3036                           ;psect for function _vfpfcnvrt
  3037  0042                     _vfpfcnvrt:
  3038                           
  3039                           ;incstack = 0
  3040                           ; Regs used in _vfpfcnvrt: [wreg-fsr1h+status,2+status,0+pclath+cstack]
  3041                           ;vfpfcnvrt@fp stored from wreg
  3042  0042  0140               	movlb	0	; select bank0
  3043  0043  00B2               	movwf	vfpfcnvrt@fp
  3044  0044                     l1865:
  3045                           
  3046                           ;C:\Program Files\Microchip\xc8\v2.31\pic\sources\c99\common\doprnt.c: 692: static int v
      +                          fpfcnvrt(FILE *fp, char *fmt[], va_list ap);C:\Program Files\Microchip\xc8\v2.31\pic\sou
      +                          rces\c99\common\doprnt.c: 693: {;C:\Program Files\Microchip\xc8\v2.31\pic\sources\c99\co
      +                          mmon\doprnt.c: 694:     char c, *cp, ct[3];;C:\Program Files\Microchip\xc8\v2.31\pic\sou
      +                          rces\c99\common\doprnt.c: 695:     int done, i;;C:\Program Files\Microchip\xc8\v2.31\pic
      +                          \sources\c99\common\doprnt.c: 696:     long long ll;;C:\Program Files\Microchip\xc8\v2.3
      +                          1\pic\sources\c99\common\doprnt.c: 697:     unsigned long long llu;
  3047  0044  082A               	movf	vfpfcnvrt@fmt,w
  3048  0045  0086               	movwf	6
  3049  0046  0187               	clrf	7
  3050  0047  3F40               	moviw [0]fsr1
  3051  0048  00AC               	movwf	??_vfpfcnvrt
  3052  0049  3F41               	moviw [1]fsr1
  3053  004A  00AD               	movwf	??_vfpfcnvrt+1
  3054  004B  082C               	movf	??_vfpfcnvrt,w
  3055  004C  0084               	movwf	4
  3056  004D  082D               	movf	??_vfpfcnvrt+1,w
  3057  004E  0085               	movwf	5
  3058  004F  0012               	moviw fsr0++
  3059  0050  3A25               	xorlw	37
  3060  0051  1D03               	btfss	3,2
  3061  0052  2854               	goto	u861
  3062  0053  2855               	goto	u860
  3063  0054                     u861:
  3064  0054  28CD               	goto	l1899
  3065  0055                     u860:
  3066  0055                     l1867:
  3067                           
  3068                           ;C:\Program Files\Microchip\xc8\v2.31\pic\sources\c99\common\doprnt.c: 703:         ++*f
      +                          mt;
  3069  0055  082A               	movf	vfpfcnvrt@fmt,w
  3070  0056  0086               	movwf	6
  3071  0057  0187               	clrf	7
  3072  0058  3001               	movlw	1
  3073  0059  0781               	addwf	1,f
  3074  005A  3141               	addfsr 1,1
  3075  005B  1803               	skipnc
  3076  005C  0A81               	incf	1,f
  3077  005D                     l1869:
  3078                           
  3079                           ;C:\Program Files\Microchip\xc8\v2.31\pic\sources\c99\common\doprnt.c: 705:         flag
      +                          s = width = 0;
  3080  005D  01CF               	clrf	_width
  3081  005E  01D0               	clrf	_width+1
  3082  005F  01D3               	clrf	_flags
  3083  0060  01D4               	clrf	_flags+1
  3084  0061                     l1871:
  3085                           
  3086                           ;C:\Program Files\Microchip\xc8\v2.31\pic\sources\c99\common\doprnt.c: 706:         prec
      +                           = -1;
  3087  0061  30FF               	movlw	255
  3088  0062  00D1               	movwf	_prec
  3089  0063  30FF               	movlw	255
  3090  0064  00D2               	movwf	_prec+1
  3091  0065                     l1873:
  3092                           
  3093                           ;C:\Program Files\Microchip\xc8\v2.31\pic\sources\c99\common\doprnt.c: 814:         if (
      +                          *fmt[0] == 'c') {
  3094  0065  082A               	movf	vfpfcnvrt@fmt,w
  3095  0066  0086               	movwf	6
  3096  0067  0187               	clrf	7
  3097  0068  3F40               	moviw [0]fsr1
  3098  0069  00AC               	movwf	??_vfpfcnvrt
  3099  006A  3F41               	moviw [1]fsr1
  3100  006B  00AD               	movwf	??_vfpfcnvrt+1
  3101  006C  082C               	movf	??_vfpfcnvrt,w
  3102  006D  0084               	movwf	4
  3103  006E  082D               	movf	??_vfpfcnvrt+1,w
  3104  006F  0085               	movwf	5
  3105  0070  0012               	moviw fsr0++
  3106  0071  3A63               	xorlw	99
  3107  0072  1D03               	btfss	3,2
  3108  0073  2875               	goto	u871
  3109  0074  2876               	goto	u870
  3110  0075                     u871:
  3111  0075  2898               	goto	l1883
  3112  0076                     u870:
  3113  0076                     l1875:
  3114                           
  3115                           ;C:\Program Files\Microchip\xc8\v2.31\pic\sources\c99\common\doprnt.c: 815:             
      +                          ++*fmt;
  3116  0076  082A               	movf	vfpfcnvrt@fmt,w
  3117  0077  0086               	movwf	6
  3118  0078  0187               	clrf	7
  3119  0079  3001               	movlw	1
  3120  007A  0781               	addwf	1,f
  3121  007B  3141               	addfsr 1,1
  3122  007C  1803               	skipnc
  3123  007D  0A81               	incf	1,f
  3124  007E                     l1877:
  3125                           
  3126                           ;C:\Program Files\Microchip\xc8\v2.31\pic\sources\c99\common\doprnt.c: 816:             
      +                          c = (unsigned char)(*(int *)__va_arg(*(int **)ap, (int)0));
  3127  007E  082B               	movf	vfpfcnvrt@ap,w
  3128  007F  0086               	movwf	6
  3129  0080  0187               	clrf	7
  3130  0081  0801               	movf	1,w
  3131  0082  0084               	movwf	4
  3132  0083  0185               	clrf	5
  3133  0084  3002               	movlw	2
  3134  0085  0781               	addwf	1,f
  3135  0086  0800               	movf	0,w
  3136  0087  00AC               	movwf	??_vfpfcnvrt
  3137  0088  082C               	movf	??_vfpfcnvrt,w
  3138  0089  00B1               	movwf	vfpfcnvrt@c
  3139  008A                     l1879:
  3140                           
  3141                           ;C:\Program Files\Microchip\xc8\v2.31\pic\sources\c99\common\doprnt.c: 817:             
      +                          return ctoa(fp, c);
  3142  008A  0831               	movf	vfpfcnvrt@c,w
  3143  008B  00AC               	movwf	??_vfpfcnvrt
  3144  008C  082C               	movf	??_vfpfcnvrt,w
  3145  008D  00A0               	movwf	ctoa@c
  3146  008E  0832               	movf	vfpfcnvrt@fp,w
  3147  008F  3180  20F1  3180   	fcall	_ctoa
  3148  0092  0140               	movlb	0	; select bank0
  3149  0093  0821               	movf	?_ctoa+1,w
  3150  0094  00AB               	movwf	?_vfpfcnvrt+1
  3151  0095  0820               	movf	?_ctoa,w
  3152  0096  00AA               	movwf	?_vfpfcnvrt
  3153  0097  28F0               	goto	l964
  3154  0098                     l1883:
  3155                           
  3156                           ;C:\Program Files\Microchip\xc8\v2.31\pic\sources\c99\common\doprnt.c: 1372:         if 
      +                          ((*fmt)[0] == '%') {
  3157  0098  082A               	movf	vfpfcnvrt@fmt,w
  3158  0099  0086               	movwf	6
  3159  009A  0187               	clrf	7
  3160  009B  3F40               	moviw [0]fsr1
  3161  009C  00AC               	movwf	??_vfpfcnvrt
  3162  009D  3F41               	moviw [1]fsr1
  3163  009E  00AD               	movwf	??_vfpfcnvrt+1
  3164  009F  082C               	movf	??_vfpfcnvrt,w
  3165  00A0  0084               	movwf	4
  3166  00A1  082D               	movf	??_vfpfcnvrt+1,w
  3167  00A2  0085               	movwf	5
  3168  00A3  0012               	moviw fsr0++
  3169  00A4  3A25               	xorlw	37
  3170  00A5  1D03               	btfss	3,2
  3171  00A6  28A8               	goto	u881
  3172  00A7  28A9               	goto	u880
  3173  00A8                     u881:
  3174  00A8  28C2               	goto	l1893
  3175  00A9                     u880:
  3176  00A9                     l1885:
  3177                           
  3178                           ;C:\Program Files\Microchip\xc8\v2.31\pic\sources\c99\common\doprnt.c: 1373:            
      +                           ++*fmt;
  3179  00A9  082A               	movf	vfpfcnvrt@fmt,w
  3180  00AA  0086               	movwf	6
  3181  00AB  0187               	clrf	7
  3182  00AC  3001               	movlw	1
  3183  00AD  0781               	addwf	1,f
  3184  00AE  3141               	addfsr 1,1
  3185  00AF  1803               	skipnc
  3186  00B0  0A81               	incf	1,f
  3187  00B1                     l1887:
  3188                           
  3189                           ;C:\Program Files\Microchip\xc8\v2.31\pic\sources\c99\common\doprnt.c: 1374:            
      +                           fputc((int)'%', fp);
  3190  00B1  3025               	movlw	37
  3191  00B2  00F4               	movwf	fputc@c
  3192  00B3  3000               	movlw	0
  3193  00B4  00F5               	movwf	fputc@c+1
  3194  00B5  0832               	movf	vfpfcnvrt@fp,w
  3195  00B6  00AC               	movwf	??_vfpfcnvrt
  3196  00B7  082C               	movf	??_vfpfcnvrt,w
  3197  00B8  00F6               	movwf	fputc@fp
  3198  00B9  3181  21AE  3180   	fcall	_fputc
  3199  00BC                     l1889:
  3200                           
  3201                           ;C:\Program Files\Microchip\xc8\v2.31\pic\sources\c99\common\doprnt.c: 1375:            
      +                           return 1;
  3202  00BC  3001               	movlw	1
  3203  00BD  0140               	movlb	0	; select bank0
  3204  00BE  00AA               	movwf	?_vfpfcnvrt
  3205  00BF  3000               	movlw	0
  3206  00C0  00AB               	movwf	?_vfpfcnvrt+1
  3207  00C1  28F0               	goto	l964
  3208  00C2                     l1893:
  3209                           
  3210                           ;C:\Program Files\Microchip\xc8\v2.31\pic\sources\c99\common\doprnt.c: 1379:         ++*
      +                          fmt;
  3211  00C2  082A               	movf	vfpfcnvrt@fmt,w
  3212  00C3  0086               	movwf	6
  3213  00C4  0187               	clrf	7
  3214  00C5  3001               	movlw	1
  3215  00C6  0781               	addwf	1,f
  3216  00C7  3141               	addfsr 1,1
  3217  00C8  1803               	skipnc
  3218  00C9  0A81               	incf	1,f
  3219  00CA                     l1895:
  3220                           
  3221                           ;C:\Program Files\Microchip\xc8\v2.31\pic\sources\c99\common\doprnt.c: 1380:         ret
      +                          urn 0;
  3222  00CA  01AA               	clrf	?_vfpfcnvrt
  3223  00CB  01AB               	clrf	?_vfpfcnvrt+1
  3224  00CC  28F0               	goto	l964
  3225  00CD                     l1899:
  3226                           
  3227                           ;C:\Program Files\Microchip\xc8\v2.31\pic\sources\c99\common\doprnt.c: 1384:     fputc((
      +                          int)(*fmt)[0], fp);
  3228  00CD  082A               	movf	vfpfcnvrt@fmt,w
  3229  00CE  0086               	movwf	6
  3230  00CF  0187               	clrf	7
  3231  00D0  3F40               	moviw [0]fsr1
  3232  00D1  00AC               	movwf	??_vfpfcnvrt
  3233  00D2  3F41               	moviw [1]fsr1
  3234  00D3  00AD               	movwf	??_vfpfcnvrt+1
  3235  00D4  082C               	movf	??_vfpfcnvrt,w
  3236  00D5  0084               	movwf	4
  3237  00D6  082D               	movf	??_vfpfcnvrt+1,w
  3238  00D7  0085               	movwf	5
  3239  00D8  0800               	movf	0,w	;code access
  3240  00D9  00AE               	movwf	??_vfpfcnvrt+2
  3241  00DA  01AF               	clrf	??_vfpfcnvrt+3
  3242  00DB  082E               	movf	??_vfpfcnvrt+2,w
  3243  00DC  00F4               	movwf	fputc@c
  3244  00DD  082F               	movf	??_vfpfcnvrt+3,w
  3245  00DE  00F5               	movwf	fputc@c+1
  3246  00DF  0832               	movf	vfpfcnvrt@fp,w
  3247  00E0  00B0               	movwf	??_vfpfcnvrt+4
  3248  00E1  0830               	movf	??_vfpfcnvrt+4,w
  3249  00E2  00F6               	movwf	fputc@fp
  3250  00E3  3181  21AE  3180   	fcall	_fputc
  3251  00E6                     l1901:
  3252                           
  3253                           ;C:\Program Files\Microchip\xc8\v2.31\pic\sources\c99\common\doprnt.c: 1385:     ++*fmt;
  3254  00E6  0140               	movlb	0	; select bank0
  3255  00E7  082A               	movf	vfpfcnvrt@fmt,w
  3256  00E8  0086               	movwf	6
  3257  00E9  0187               	clrf	7
  3258  00EA  3001               	movlw	1
  3259  00EB  0781               	addwf	1,f
  3260  00EC  3141               	addfsr 1,1
  3261  00ED  1803               	skipnc
  3262  00EE  0A81               	incf	1,f
  3263  00EF  28BC               	goto	l1889
  3264  00F0                     l964:
  3265  00F0  0008               	return
  3266  00F1                     __end_of_vfpfcnvrt:
  3267                           
  3268                           	psect	text5
  3269  00F1                     __ptext5:	
  3270 ;; *************** function _ctoa *****************
  3271 ;; Defined at:
  3272 ;;		line 259 in file "C:\Program Files\Microchip\xc8\v2.31\pic\sources\c99\common\doprnt.c"
  3273 ;; Parameters:    Size  Location     Type
  3274 ;;  fp              1    wreg     PTR struct _IO_FILE
  3275 ;;		 -> NULL(0), 
  3276 ;;  c               1    0[BANK0 ] unsigned char 
  3277 ;; Auto vars:     Size  Location     Type
  3278 ;;  fp              1    9[BANK0 ] PTR struct _IO_FILE
  3279 ;;		 -> NULL(0), 
  3280 ;;  w               2    7[BANK0 ] int 
  3281 ;;  l               2    5[BANK0 ] int 
  3282 ;; Return value:  Size  Location     Type
  3283 ;;                  2    0[BANK0 ] int 
  3284 ;; Registers used:
  3285 ;;		wreg, fsr1l, fsr1h, status,2, status,0, pclath, cstack
  3286 ;; Tracked objects:
  3287 ;;		On entry : 0/0
  3288 ;;		On exit  : 0/0
  3289 ;;		Unchanged: 0/0
  3290 ;; Data sizes:     COMMON   BANK0   BANK1   BANK2   BANK3   BANK4   BANK5   BANK6   BANK7   BANK8   BANK9  BANK10  BANK1
      +1  BANK12
  3291 ;;      Params:         0       2       0       0       0       0       0       0       0       0       0       0       
      +0       0
  3292 ;;      Locals:         0       5       0       0       0       0       0       0       0       0       0       0       
      +0       0
  3293 ;;      Temps:          0       3       0       0       0       0       0       0       0       0       0       0       
      +0       0
  3294 ;;      Totals:         0      10       0       0       0       0       0       0       0       0       0       0       
      +0       0
  3295 ;;Total ram usage:       10 bytes
  3296 ;; Hardware stack levels used:    1
  3297 ;; Hardware stack levels required when called:    7
  3298 ;; This function calls:
  3299 ;;		_fputc
  3300 ;; This function is called by:
  3301 ;;		_vfpfcnvrt
  3302 ;; This function uses a non-reentrant model
  3303 ;;
  3304                           
  3305                           
  3306                           ;psect for function _ctoa
  3307  00F1                     _ctoa:
  3308                           
  3309                           ;incstack = 0
  3310                           ; Regs used in _ctoa: [wreg+fsr1l+fsr1h+status,2+status,0+pclath+cstack]
  3311                           ;ctoa@fp stored from wreg
  3312  00F1  0140               	movlb	0	; select bank0
  3313  00F2  00A9               	movwf	ctoa@fp
  3314  00F3                     l1821:
  3315                           
  3316                           ;C:\Program Files\Microchip\xc8\v2.31\pic\sources\c99\common\doprnt.c: 259: static int c
      +                          toa(FILE *fp, char c);C:\Program Files\Microchip\xc8\v2.31\pic\sources\c99\common\doprnt
      +                          .c: 260: {;C:\Program Files\Microchip\xc8\v2.31\pic\sources\c99\common\doprnt.c: 261:   
      +                            int l, w;;C:\Program Files\Microchip\xc8\v2.31\pic\sources\c99\common\doprnt.c: 264:  
      +                             w = width ? width - 1 : width;
  3317  00F3  084F               	movf	_width,w
  3318  00F4  0450               	iorwf	_width+1,w
  3319  00F5  1D03               	btfss	3,2
  3320  00F6  28F8               	goto	u811
  3321  00F7  28F9               	goto	u810
  3322  00F8                     u811:
  3323  00F8  28FE               	goto	l1825
  3324  00F9                     u810:
  3325  00F9                     l1823:
  3326  00F9  0850               	movf	_width+1,w
  3327  00FA  00A8               	movwf	ctoa@w+1
  3328  00FB  084F               	movf	_width,w
  3329  00FC  00A7               	movwf	ctoa@w
  3330  00FD  2904               	goto	l1827
  3331  00FE                     l1825:
  3332  00FE  084F               	movf	_width,w
  3333  00FF  3EFF               	addlw	255
  3334  0100  00A7               	movwf	ctoa@w
  3335  0101  30FF               	movlw	255
  3336  0102  3D50               	addwfc	_width+1,w
  3337  0103  00A8               	movwf	ctoa@w+1
  3338  0104                     l1827:
  3339                           
  3340                           ;C:\Program Files\Microchip\xc8\v2.31\pic\sources\c99\common\doprnt.c: 267:     if (flag
      +                          s & (1 << 0)) {
  3341  0104  1C53               	btfss	_flags,0
  3342  0105  2907               	goto	u821
  3343  0106  2908               	goto	u820
  3344  0107                     u821:
  3345  0107  2916               	goto	l1831
  3346  0108                     u820:
  3347  0108                     l1829:
  3348                           
  3349                           ;C:\Program Files\Microchip\xc8\v2.31\pic\sources\c99\common\doprnt.c: 268:         fput
      +                          c(c, fp);
  3350  0108  0820               	movf	ctoa@c,w
  3351  0109  00A2               	movwf	??_ctoa
  3352  010A  01A3               	clrf	??_ctoa+1
  3353  010B  0822               	movf	??_ctoa,w
  3354  010C  00F4               	movwf	fputc@c
  3355  010D  0823               	movf	??_ctoa+1,w
  3356  010E  00F5               	movwf	fputc@c+1
  3357  010F  0829               	movf	ctoa@fp,w
  3358  0110  00A4               	movwf	??_ctoa+2
  3359  0111  0824               	movf	??_ctoa+2,w
  3360  0112  00F6               	movwf	fputc@fp
  3361  0113  3181  21AE  3180   	fcall	_fputc
  3362  0116                     l1831:
  3363                           
  3364                           ;C:\Program Files\Microchip\xc8\v2.31\pic\sources\c99\common\doprnt.c: 271:     w = (w <
      +                           0) ? 0 : w;
  3365  0116  0140               	movlb	0	; select bank0
  3366  0117  1BA8               	btfsc	ctoa@w+1,7
  3367  0118  291A               	goto	u831
  3368  0119  291B               	goto	u830
  3369  011A                     u831:
  3370  011A  291C               	goto	l1835
  3371  011B                     u830:
  3372  011B  291E               	goto	l954
  3373  011C                     l1835:
  3374  011C  01A7               	clrf	ctoa@w
  3375  011D  01A8               	clrf	ctoa@w+1
  3376  011E                     l954:
  3377                           
  3378                           ;C:\Program Files\Microchip\xc8\v2.31\pic\sources\c99\common\doprnt.c: 272:     l = 0;
  3379  011E  01A5               	clrf	ctoa@l
  3380  011F  01A6               	clrf	ctoa@l+1
  3381                           
  3382                           ;C:\Program Files\Microchip\xc8\v2.31\pic\sources\c99\common\doprnt.c: 273:     while (l
      +                           < w) {
  3383  0120  2932               	goto	l1841
  3384  0121                     l1837:
  3385                           
  3386                           ;C:\Program Files\Microchip\xc8\v2.31\pic\sources\c99\common\doprnt.c: 274:         fput
      +                          c(' ', fp);
  3387  0121  3020               	movlw	32
  3388  0122  00F4               	movwf	fputc@c
  3389  0123  3000               	movlw	0
  3390  0124  00F5               	movwf	fputc@c+1
  3391  0125  0140               	movlb	0	; select bank0
  3392  0126  0829               	movf	ctoa@fp,w
  3393  0127  00A2               	movwf	??_ctoa
  3394  0128  0822               	movf	??_ctoa,w
  3395  0129  00F6               	movwf	fputc@fp
  3396  012A  3181  21AE  3180   	fcall	_fputc
  3397  012D                     l1839:
  3398                           
  3399                           ;C:\Program Files\Microchip\xc8\v2.31\pic\sources\c99\common\doprnt.c: 275:         ++l;
  3400  012D  3001               	movlw	1
  3401  012E  0140               	movlb	0	; select bank0
  3402  012F  07A5               	addwf	ctoa@l,f
  3403  0130  3000               	movlw	0
  3404  0131  3DA6               	addwfc	ctoa@l+1,f
  3405  0132                     l1841:
  3406                           
  3407                           ;C:\Program Files\Microchip\xc8\v2.31\pic\sources\c99\common\doprnt.c: 273:     while (l
      +                           < w) {
  3408  0132  0826               	movf	ctoa@l+1,w
  3409  0133  3A80               	xorlw	128
  3410  0134  00A2               	movwf	??_ctoa
  3411  0135  0828               	movf	ctoa@w+1,w
  3412  0136  3A80               	xorlw	128
  3413  0137  0222               	subwf	??_ctoa,w
  3414  0138  1D03               	skipz
  3415  0139  293C               	goto	u845
  3416  013A  0827               	movf	ctoa@w,w
  3417  013B  0225               	subwf	ctoa@l,w
  3418  013C                     u845:
  3419  013C  1C03               	skipc
  3420  013D  293F               	goto	u841
  3421  013E  2940               	goto	u840
  3422  013F                     u841:
  3423  013F  2921               	goto	l1837
  3424  0140                     u840:
  3425  0140                     l957:
  3426                           
  3427                           ;C:\Program Files\Microchip\xc8\v2.31\pic\sources\c99\common\doprnt.c: 278:     if (!(fl
      +                          ags & (1 << 0))) {
  3428  0140  0140               	movlb	0	; select bank0
  3429  0141  1853               	btfsc	_flags,0
  3430  0142  2944               	goto	u851
  3431  0143  2945               	goto	u850
  3432  0144                     u851:
  3433  0144  2953               	goto	l1845
  3434  0145                     u850:
  3435  0145                     l1843:
  3436                           
  3437                           ;C:\Program Files\Microchip\xc8\v2.31\pic\sources\c99\common\doprnt.c: 279:         fput
      +                          c(c, fp);
  3438  0145  0820               	movf	ctoa@c,w
  3439  0146  00A2               	movwf	??_ctoa
  3440  0147  01A3               	clrf	??_ctoa+1
  3441  0148  0822               	movf	??_ctoa,w
  3442  0149  00F4               	movwf	fputc@c
  3443  014A  0823               	movf	??_ctoa+1,w
  3444  014B  00F5               	movwf	fputc@c+1
  3445  014C  0829               	movf	ctoa@fp,w
  3446  014D  00A4               	movwf	??_ctoa+2
  3447  014E  0824               	movf	??_ctoa+2,w
  3448  014F  00F6               	movwf	fputc@fp
  3449  0150  3181  21AE  3180   	fcall	_fputc
  3450  0153                     l1845:
  3451                           
  3452                           ;C:\Program Files\Microchip\xc8\v2.31\pic\sources\c99\common\doprnt.c: 282:     return l
      +                          +1;
  3453  0153  0140               	movlb	0	; select bank0
  3454  0154  0825               	movf	ctoa@l,w
  3455  0155  3E01               	addlw	1
  3456  0156  00A0               	movwf	?_ctoa
  3457  0157  3000               	movlw	0
  3458  0158  3D26               	addwfc	ctoa@l+1,w
  3459  0159  00A1               	movwf	?_ctoa+1
  3460  015A                     l959:
  3461  015A  0008               	return
  3462  015B                     __end_of_ctoa:
  3463                           
  3464                           	psect	text6
  3465  01AE                     __ptext6:	
  3466 ;; *************** function _fputc *****************
  3467 ;; Defined at:
  3468 ;;		line 8 in file "C:\Program Files\Microchip\xc8\v2.31\pic\sources\c99\common\nf_fputc.c"
  3469 ;; Parameters:    Size  Location     Type
  3470 ;;  c               2    4[COMMON] int 
  3471 ;;  fp              1    6[COMMON] PTR struct _IO_FILE
  3472 ;;		 -> NULL(0), 
  3473 ;; Auto vars:     Size  Location     Type
  3474 ;;		None
  3475 ;; Return value:  Size  Location     Type
  3476 ;;                  2    4[COMMON] int 
  3477 ;; Registers used:
  3478 ;;		wreg, fsr1l, fsr1h, status,2, status,0, pclath, cstack
  3479 ;; Tracked objects:
  3480 ;;		On entry : 0/0
  3481 ;;		On exit  : 0/0
  3482 ;;		Unchanged: 0/0
  3483 ;; Data sizes:     COMMON   BANK0   BANK1   BANK2   BANK3   BANK4   BANK5   BANK6   BANK7   BANK8   BANK9  BANK10  BANK1
      +1  BANK12
  3484 ;;      Params:         3       0       0       0       0       0       0       0       0       0       0       0       
      +0       0
  3485 ;;      Locals:         0       0       0       0       0       0       0       0       0       0       0       0       
      +0       0
  3486 ;;      Temps:          5       0       0       0       0       0       0       0       0       0       0       0       
      +0       0
  3487 ;;      Totals:         8       0       0       0       0       0       0       0       0       0       0       0       
      +0       0
  3488 ;;Total ram usage:        8 bytes
  3489 ;; Hardware stack levels used:    1
  3490 ;; Hardware stack levels required when called:    6
  3491 ;; This function calls:
  3492 ;;		_putch
  3493 ;; This function is called by:
  3494 ;;		_ctoa
  3495 ;;		_vfpfcnvrt
  3496 ;; This function uses a non-reentrant model
  3497 ;;
  3498                           
  3499                           
  3500                           ;psect for function _fputc
  3501  01AE                     _fputc:
  3502  01AE                     l1807:	
  3503                           ;incstack = 0
  3504                           ; Regs used in _fputc: [wreg+fsr1l+fsr1h+status,2+status,0+pclath+cstack]
  3505                           
  3506  01AE  0876               	movf	fputc@fp,w
  3507  01AF  1903               	btfsc	3,2
  3508  01B0  29B2               	goto	u771
  3509  01B1  29B3               	goto	u770
  3510  01B2                     u771:
  3511  01B2  29B8               	goto	l1811
  3512  01B3                     u770:
  3513  01B3                     l1809:
  3514  01B3  0876               	movf	fputc@fp,w
  3515  01B4  1D03               	btfss	3,2
  3516  01B5  29B7               	goto	u781
  3517  01B6  29B8               	goto	u780
  3518  01B7                     u781:
  3519  01B7  29BD               	goto	l1813
  3520  01B8                     u780:
  3521  01B8                     l1811:
  3522  01B8  0874               	movf	fputc@c,w
  3523  01B9  3184  2413  3181   	fcall	_putch
  3524  01BC  29EC               	goto	l983
  3525  01BD                     l1813:
  3526  01BD  0876               	movf	fputc@fp,w
  3527  01BE  3E03               	addlw	3
  3528  01BF  0086               	movwf	6
  3529  01C0  0187               	clrf	7
  3530  01C1  0016               	moviw fsr1++
  3531  01C2  0401               	iorwf	1,w
  3532  01C3  1903               	btfsc	3,2
  3533  01C4  29C6               	goto	u791
  3534  01C5  29C7               	goto	u790
  3535  01C6                     u791:
  3536  01C6  29E4               	goto	l1817
  3537  01C7                     u790:
  3538  01C7                     l1815:
  3539  01C7  0876               	movf	fputc@fp,w
  3540  01C8  3E03               	addlw	3
  3541  01C9  0086               	movwf	6
  3542  01CA  0187               	clrf	7
  3543  01CB  3F40               	moviw [0]fsr1
  3544  01CC  00F7               	movwf	??_fputc
  3545  01CD  3F41               	moviw [1]fsr1
  3546  01CE  00F8               	movwf	??_fputc+1
  3547  01CF  0A76               	incf	fputc@fp,w
  3548  01D0  0086               	movwf	6
  3549  01D1  0187               	clrf	7
  3550  01D2  3F40               	moviw [0]fsr1
  3551  01D3  00F9               	movwf	??_fputc+2
  3552  01D4  3F41               	moviw [1]fsr1
  3553  01D5  00FA               	movwf	??_fputc+3
  3554  01D6  087A               	movf	??_fputc+3,w
  3555  01D7  3A80               	xorlw	128
  3556  01D8  00FB               	movwf	??_fputc+4
  3557  01D9  0878               	movf	??_fputc+1,w
  3558  01DA  3A80               	xorlw	128
  3559  01DB  027B               	subwf	??_fputc+4,w
  3560  01DC  1D03               	skipz
  3561  01DD  29E0               	goto	u805
  3562  01DE  0877               	movf	??_fputc,w
  3563  01DF  0279               	subwf	??_fputc+2,w
  3564  01E0                     u805:
  3565  01E0  1803               	skipnc
  3566  01E1  29E3               	goto	u801
  3567  01E2  29E4               	goto	u800
  3568  01E3                     u801:
  3569  01E3  29EC               	goto	l983
  3570  01E4                     u800:
  3571  01E4                     l1817:
  3572  01E4  0A76               	incf	fputc@fp,w
  3573  01E5  0086               	movwf	6
  3574  01E6  0187               	clrf	7
  3575  01E7  3001               	movlw	1
  3576  01E8  0781               	addwf	1,f
  3577  01E9  3141               	addfsr 1,1
  3578  01EA  1803               	skipnc
  3579  01EB  0A81               	incf	1,f
  3580  01EC                     l983:
  3581  01EC  0008               	return
  3582  01ED                     __end_of_fputc:
  3583                           
  3584                           	psect	text7
  3585  0413                     __ptext7:	
  3586 ;; *************** function _putch *****************
  3587 ;; Defined at:
  3588 ;;		line 201 in file "mcc_generated_files/eusart1.c"
  3589 ;; Parameters:    Size  Location     Type
  3590 ;;  txData          1    wreg     unsigned char 
  3591 ;; Auto vars:     Size  Location     Type
  3592 ;;  txData          1    3[COMMON] unsigned char 
  3593 ;; Return value:  Size  Location     Type
  3594 ;;                  1    wreg      void 
  3595 ;; Registers used:
  3596 ;;		wreg, fsr1l, fsr1h, status,2, status,0, pclath, cstack
  3597 ;; Tracked objects:
  3598 ;;		On entry : 0/0
  3599 ;;		On exit  : 0/0
  3600 ;;		Unchanged: 0/0
  3601 ;; Data sizes:     COMMON   BANK0   BANK1   BANK2   BANK3   BANK4   BANK5   BANK6   BANK7   BANK8   BANK9  BANK10  BANK1
      +1  BANK12
  3602 ;;      Params:         0       0       0       0       0       0       0       0       0       0       0       0       
      +0       0
  3603 ;;      Locals:         1       0       0       0       0       0       0       0       0       0       0       0       
      +0       0
  3604 ;;      Temps:          0       0       0       0       0       0       0       0       0       0       0       0       
      +0       0
  3605 ;;      Totals:         1       0       0       0       0       0       0       0       0       0       0       0       
      +0       0
  3606 ;;Total ram usage:        1 bytes
  3607 ;; Hardware stack levels used:    1
  3608 ;; Hardware stack levels required when called:    5
  3609 ;; This function calls:
  3610 ;;		_EUSART1_Write
  3611 ;; This function is called by:
  3612 ;;		_fputc
  3613 ;; This function uses a non-reentrant model
  3614 ;;
  3615                           
  3616                           
  3617                           ;psect for function _putch
  3618  0413                     _putch:
  3619                           
  3620                           ;incstack = 0
  3621                           ; Regs used in _putch: [wreg+fsr1l+fsr1h+status,2+status,0+pclath+cstack]
  3622                           ;putch@txData stored from wreg
  3623  0413  00F3               	movwf	putch@txData
  3624  0414                     l1805:
  3625                           
  3626                           ;mcc_generated_files/eusart1.c: 201: void putch(char txData);mcc_generated_files/eusart1
      +                          .c: 202: {;mcc_generated_files/eusart1.c: 203:     EUSART1_Write(txData);
  3627  0414  0873               	movf	putch@txData,w
  3628  0415  3182  22C1  3184   	fcall	_EUSART1_Write
  3629  0418                     l165:
  3630  0418  0008               	return
  3631  0419                     __end_of_putch:
  3632                           
  3633                           	psect	text8
  3634  02C1                     __ptext8:	
  3635 ;; *************** function _EUSART1_Write *****************
  3636 ;; Defined at:
  3637 ;;		line 173 in file "mcc_generated_files/eusart1.c"
  3638 ;; Parameters:    Size  Location     Type
  3639 ;;  txData          1    wreg     unsigned char 
  3640 ;; Auto vars:     Size  Location     Type
  3641 ;;  txData          1    2[COMMON] unsigned char 
  3642 ;; Return value:  Size  Location     Type
  3643 ;;                  1    wreg      void 
  3644 ;; Registers used:
  3645 ;;		wreg, fsr1l, fsr1h, status,2, status,0
  3646 ;; Tracked objects:
  3647 ;;		On entry : 0/0
  3648 ;;		On exit  : 0/0
  3649 ;;		Unchanged: 0/0
  3650 ;; Data sizes:     COMMON   BANK0   BANK1   BANK2   BANK3   BANK4   BANK5   BANK6   BANK7   BANK8   BANK9  BANK10  BANK1
      +1  BANK12
  3651 ;;      Params:         0       0       0       0       0       0       0       0       0       0       0       0       
      +0       0
  3652 ;;      Locals:         1       0       0       0       0       0       0       0       0       0       0       0       
      +0       0
  3653 ;;      Temps:          1       0       0       0       0       0       0       0       0       0       0       0       
      +0       0
  3654 ;;      Totals:         2       0       0       0       0       0       0       0       0       0       0       0       
      +0       0
  3655 ;;Total ram usage:        2 bytes
  3656 ;; Hardware stack levels used:    1
  3657 ;; Hardware stack levels required when called:    4
  3658 ;; This function calls:
  3659 ;;		Nothing
  3660 ;; This function is called by:
  3661 ;;		_putch
  3662 ;; This function uses a non-reentrant model
  3663 ;;
  3664                           
  3665                           
  3666                           ;psect for function _EUSART1_Write
  3667  02C1                     _EUSART1_Write:
  3668                           
  3669                           ;incstack = 0
  3670                           ; Regs used in _EUSART1_Write: [wreg+fsr1l+fsr1h+status,2+status,0]
  3671                           ;EUSART1_Write@txData stored from wreg
  3672  02C1  00F2               	movwf	EUSART1_Write@txData
  3673  02C2                     l1787:
  3674  02C2                     l1789:	
  3675                           ;mcc_generated_files/eusart1.c: 173: void EUSART1_Write(uint8_t txData);mcc_generated_fi
      +                          les/eusart1.c: 174: {;mcc_generated_files/eusart1.c: 175:     while(0 == eusart1TxBuffer
      +                          Remaining)
  3676                           
  3677                           
  3678                           ;mcc_generated_files/eusart1.c: 175:     while(0 == eusart1TxBufferRemaining)
  3679  02C2  0140               	movlb	0	; select bank0
  3680  02C3  085F               	movf	_eusart1TxBufferRemaining,w	;volatile
  3681  02C4  1903               	btfsc	3,2
  3682  02C5  2AC7               	goto	u741
  3683  02C6  2AC8               	goto	u740
  3684  02C7                     u741:
  3685  02C7  2AC2               	goto	l1789
  3686  02C8                     u740:
  3687  02C8                     l155:
  3688                           
  3689                           ;mcc_generated_files/eusart1.c: 179:     if(0 == PIE3bits.TX1IE)
  3690  02C8  014E               	movlb	14	; select bank14
  3691  02C9  1A19               	btfsc	25,4	;volatile
  3692  02CA  2ACC               	goto	u751
  3693  02CB  2ACD               	goto	u750
  3694  02CC                     u751:
  3695  02CC  2AD1               	goto	l156
  3696  02CD                     u750:
  3697  02CD                     l1791:
  3698                           
  3699                           ;mcc_generated_files/eusart1.c: 180:     {;mcc_generated_files/eusart1.c: 181:         T
      +                          X1REG = txData;
  3700  02CD  0872               	movf	EUSART1_Write@txData,w
  3701  02CE  0142               	movlb	2	; select bank2
  3702  02CF  009A               	movwf	26	;volatile
  3703                           
  3704                           ;mcc_generated_files/eusart1.c: 182:     }
  3705  02D0  2AE8               	goto	l1803
  3706  02D1                     l156:	
  3707                           ;mcc_generated_files/eusart1.c: 183:     else
  3708                           
  3709                           
  3710                           ;mcc_generated_files/eusart1.c: 184:     {;mcc_generated_files/eusart1.c: 185:         P
      +                          IE3bits.TX1IE = 0;
  3711  02D1  1219               	bcf	25,4	;volatile
  3712  02D2                     l1793:
  3713                           
  3714                           ;mcc_generated_files/eusart1.c: 186:         eusart1TxBuffer[eusart1TxHead++] = txData;
  3715  02D2  0872               	movf	EUSART1_Write@txData,w
  3716  02D3  00F1               	movwf	??_EUSART1_Write
  3717  02D4  0140               	movlb	0	; select bank0
  3718  02D5  085A               	movf	_eusart1TxHead,w
  3719  02D6  3EDC               	addlw	(low (_eusart1TxBuffer| 0))& (0+255)
  3720  02D7  0086               	movwf	6
  3721  02D8  0187               	clrf	7
  3722  02D9  0871               	movf	??_EUSART1_Write,w
  3723  02DA  0081               	movwf	1
  3724  02DB                     l1795:
  3725  02DB  3001               	movlw	1
  3726  02DC  00F1               	movwf	??_EUSART1_Write
  3727  02DD  0871               	movf	??_EUSART1_Write,w
  3728  02DE  07DA               	addwf	_eusart1TxHead,f	;volatile
  3729  02DF                     l1797:
  3730                           
  3731                           ;mcc_generated_files/eusart1.c: 187:         if(sizeof(eusart1TxBuffer) <= eusart1TxHead
      +                          )
  3732  02DF  3008               	movlw	8
  3733  02E0  025A               	subwf	_eusart1TxHead,w	;volatile
  3734  02E1  1C03               	skipc
  3735  02E2  2AE4               	goto	u761
  3736  02E3  2AE5               	goto	u760
  3737  02E4                     u761:
  3738  02E4  2AE6               	goto	l1801
  3739  02E5                     u760:
  3740  02E5                     l1799:
  3741                           
  3742                           ;mcc_generated_files/eusart1.c: 188:         {;mcc_generated_files/eusart1.c: 189:      
      +                                 eusart1TxHead = 0;
  3743  02E5  01DA               	clrf	_eusart1TxHead	;volatile
  3744  02E6                     l1801:
  3745                           
  3746                           ;mcc_generated_files/eusart1.c: 191:         eusart1TxBufferRemaining--;
  3747  02E6  3001               	movlw	1
  3748  02E7  02DF               	subwf	_eusart1TxBufferRemaining,f	;volatile
  3749  02E8                     l1803:
  3750                           
  3751                           ;mcc_generated_files/eusart1.c: 193:     PIE3bits.TX1IE = 1;
  3752  02E8  014E               	movlb	14	; select bank14
  3753  02E9  1619               	bsf	25,4	;volatile
  3754  02EA                     l159:
  3755  02EA  0008               	return
  3756  02EB                     __end_of_EUSART1_Write:
  3757                           
  3758                           	psect	text9
  3759  033D                     __ptext9:	
  3760 ;; *************** function _parsing *****************
  3761 ;; Defined at:
  3762 ;;		line 60 in file "main.c"
  3763 ;; Parameters:    Size  Location     Type
  3764 ;;  Value           2    1[COMMON] unsigned short 
  3765 ;;  Buffer          1    3[COMMON] PTR unsigned char 
  3766 ;;		 -> main@Buffer(10), 
  3767 ;;  char_counter    2    4[COMMON] int 
  3768 ;; Auto vars:     Size  Location     Type
  3769 ;;  Printed         1    0        _Bool 
  3770 ;;  i               1    0        unsigned char 
  3771 ;; Return value:  Size  Location     Type
  3772 ;;                  1    wreg      void 
  3773 ;; Registers used:
  3774 ;;		wreg, fsr1l, fsr1h, status,2, status,0
  3775 ;; Tracked objects:
  3776 ;;		On entry : 0/0
  3777 ;;		On exit  : 0/0
  3778 ;;		Unchanged: 0/0
  3779 ;; Data sizes:     COMMON   BANK0   BANK1   BANK2   BANK3   BANK4   BANK5   BANK6   BANK7   BANK8   BANK9  BANK10  BANK1
      +1  BANK12
  3780 ;;      Params:         5       0       0       0       0       0       0       0       0       0       0       0       
      +0       0
  3781 ;;      Locals:         1       0       0       0       0       0       0       0       0       0       0       0       
      +0       0
  3782 ;;      Temps:          1       0       0       0       0       0       0       0       0       0       0       0       
      +0       0
  3783 ;;      Totals:         7       0       0       0       0       0       0       0       0       0       0       0       
      +0       0
  3784 ;;Total ram usage:        7 bytes
  3785 ;; Hardware stack levels used:    1
  3786 ;; Hardware stack levels required when called:    4
  3787 ;; This function calls:
  3788 ;;		Nothing
  3789 ;; This function is called by:
  3790 ;;		_main
  3791 ;; This function uses a non-reentrant model
  3792 ;;
  3793                           
  3794                           
  3795                           ;psect for function _parsing
  3796  033D                     _parsing:
  3797  033D                     l2037:	
  3798                           ;incstack = 0
  3799                           ; Regs used in _parsing: [wreg+fsr1l+fsr1h+status,2+status,0]
  3800                           
  3801  033D                     l2039:
  3802                           
  3803                           ;main.c: 65:     if(Value)
  3804  033D  0871               	movf	parsing@Value,w
  3805  033E  0472               	iorwf	parsing@Value+1,w
  3806  033F  1903               	btfsc	3,2
  3807  0340  2B42               	goto	u921
  3808  0341  2B43               	goto	u920
  3809  0342                     u921:
  3810  0342  2B50               	goto	l2047
  3811  0343                     u920:
  3812  0343                     l2041:
  3813                           
  3814                           ;main.c: 66:     {;main.c: 67:         *Buffer++ = Value;
  3815  0343  0871               	movf	parsing@Value,w
  3816  0344  00F6               	movwf	??_parsing
  3817  0345  0873               	movf	parsing@Buffer,w
  3818  0346  0086               	movwf	6
  3819  0347  3001               	movlw	1	; select bank2/3
  3820  0348  0087               	movwf	7
  3821  0349  0876               	movf	??_parsing,w
  3822  034A  0081               	movwf	1
  3823  034B                     l2043:
  3824  034B  3001               	movlw	1
  3825  034C  00F6               	movwf	??_parsing
  3826  034D  0876               	movf	??_parsing,w
  3827  034E  07F3               	addwf	parsing@Buffer,f
  3828  034F                     l2045:
  3829                           
  3830                           ;main.c: 80:     }
  3831  034F  2B5C               	goto	l2051
  3832  0350                     l2047:
  3833                           
  3834                           ;main.c: 82:     {;main.c: 83:         *Buffer++ = '0';
  3835  0350  3030               	movlw	48
  3836  0351  00F6               	movwf	??_parsing
  3837  0352  0873               	movf	parsing@Buffer,w
  3838  0353  0086               	movwf	6
  3839  0354  3001               	movlw	1	; select bank2/3
  3840  0355  0087               	movwf	7
  3841  0356  0876               	movf	??_parsing,w
  3842  0357  0081               	movwf	1
  3843  0358                     l2049:
  3844  0358  3001               	movlw	1
  3845  0359  00F6               	movwf	??_parsing
  3846  035A  0876               	movf	??_parsing,w
  3847  035B  07F3               	addwf	parsing@Buffer,f
  3848  035C                     l2051:
  3849                           
  3850                           ;main.c: 86:     *Buffer = '\0';
  3851  035C  0873               	movf	parsing@Buffer,w
  3852  035D  0086               	movwf	6
  3853  035E  3001               	movlw	1	; select bank2/3
  3854  035F  0087               	movwf	7
  3855  0360  0181               	clrf	1
  3856  0361                     l352:
  3857  0361  0008               	return
  3858  0362                     __end_of_parsing:
  3859                           
  3860                           	psect	text10
  3861  03EB                     __ptext10:	
  3862 ;; *************** function _SYSTEM_Initialize *****************
  3863 ;; Defined at:
  3864 ;;		line 50 in file "mcc_generated_files/mcc.c"
  3865 ;; Parameters:    Size  Location     Type
  3866 ;;		None
  3867 ;; Auto vars:     Size  Location     Type
  3868 ;;		None
  3869 ;; Return value:  Size  Location     Type
  3870 ;;                  1    wreg      void 
  3871 ;; Registers used:
  3872 ;;		wreg, status,2, status,0, pclath, cstack
  3873 ;; Tracked objects:
  3874 ;;		On entry : 0/0
  3875 ;;		On exit  : 0/0
  3876 ;;		Unchanged: 0/0
  3877 ;; Data sizes:     COMMON   BANK0   BANK1   BANK2   BANK3   BANK4   BANK5   BANK6   BANK7   BANK8   BANK9  BANK10  BANK1
      +1  BANK12
  3878 ;;      Params:         0       0       0       0       0       0       0       0       0       0       0       0       
      +0       0
  3879 ;;      Locals:         0       0       0       0       0       0       0       0       0       0       0       0       
      +0       0
  3880 ;;      Temps:          0       0       0       0       0       0       0       0       0       0       0       0       
      +0       0
  3881 ;;      Totals:         0       0       0       0       0       0       0       0       0       0       0       0       
      +0       0
  3882 ;;Total ram usage:        0 bytes
  3883 ;; Hardware stack levels used:    1
  3884 ;; Hardware stack levels required when called:    6
  3885 ;; This function calls:
  3886 ;;		_EUSART1_Initialize
  3887 ;;		_EUSART2_Initialize
  3888 ;;		_OSCILLATOR_Initialize
  3889 ;;		_PIN_MANAGER_Initialize
  3890 ;;		_PMD_Initialize
  3891 ;; This function is called by:
  3892 ;;		_main
  3893 ;; This function uses a non-reentrant model
  3894 ;;
  3895                           
  3896                           
  3897                           ;psect for function _SYSTEM_Initialize
  3898  03EB                     _SYSTEM_Initialize:
  3899  03EB                     l2027:	
  3900                           ;incstack = 0
  3901                           ; Regs used in _SYSTEM_Initialize: [wreg+status,2+status,0+pclath+cstack]
  3902                           
  3903                           
  3904                           ;mcc_generated_files/mcc.c: 52:     PMD_Initialize();
  3905  03EB  3184  2405  3183   	fcall	_PMD_Initialize
  3906  03EE                     l2029:
  3907                           
  3908                           ;mcc_generated_files/mcc.c: 53:     PIN_MANAGER_Initialize();
  3909  03EE  3182  2296  3183   	fcall	_PIN_MANAGER_Initialize
  3910  03F1                     l2031:
  3911                           
  3912                           ;mcc_generated_files/mcc.c: 54:     OSCILLATOR_Initialize();
  3913  03F1  3183  23FB  3183   	fcall	_OSCILLATOR_Initialize
  3914  03F4                     l2033:
  3915                           
  3916                           ;mcc_generated_files/mcc.c: 55:     EUSART1_Initialize();
  3917  03F4  3181  21ED  3183   	fcall	_EUSART1_Initialize
  3918  03F7                     l2035:
  3919                           
  3920                           ;mcc_generated_files/mcc.c: 56:     EUSART2_Initialize();
  3921  03F7  3183  2362  3183   	fcall	_EUSART2_Initialize
  3922  03FA                     l243:
  3923  03FA  0008               	return
  3924  03FB                     __end_of_SYSTEM_Initialize:
  3925                           
  3926                           	psect	text11
  3927  0405                     __ptext11:	
  3928 ;; *************** function _PMD_Initialize *****************
  3929 ;; Defined at:
  3930 ;;		line 75 in file "mcc_generated_files/mcc.c"
  3931 ;; Parameters:    Size  Location     Type
  3932 ;;		None
  3933 ;; Auto vars:     Size  Location     Type
  3934 ;;		None
  3935 ;; Return value:  Size  Location     Type
  3936 ;;                  1    wreg      void 
  3937 ;; Registers used:
  3938 ;;		status,2
  3939 ;; Tracked objects:
  3940 ;;		On entry : 0/0
  3941 ;;		On exit  : 0/0
  3942 ;;		Unchanged: 0/0
  3943 ;; Data sizes:     COMMON   BANK0   BANK1   BANK2   BANK3   BANK4   BANK5   BANK6   BANK7   BANK8   BANK9  BANK10  BANK1
      +1  BANK12
  3944 ;;      Params:         0       0       0       0       0       0       0       0       0       0       0       0       
      +0       0
  3945 ;;      Locals:         0       0       0       0       0       0       0       0       0       0       0       0       
      +0       0
  3946 ;;      Temps:          0       0       0       0       0       0       0       0       0       0       0       0       
      +0       0
  3947 ;;      Totals:         0       0       0       0       0       0       0       0       0       0       0       0       
      +0       0
  3948 ;;Total ram usage:        0 bytes
  3949 ;; Hardware stack levels used:    1
  3950 ;; Hardware stack levels required when called:    4
  3951 ;; This function calls:
  3952 ;;		Nothing
  3953 ;; This function is called by:
  3954 ;;		_SYSTEM_Initialize
  3955 ;; This function uses a non-reentrant model
  3956 ;;
  3957                           
  3958                           
  3959                           ;psect for function _PMD_Initialize
  3960  0405                     _PMD_Initialize:
  3961  0405                     l1969:	
  3962                           ;incstack = 0
  3963                           ; Regs used in _PMD_Initialize: [status,2]
  3964                           
  3965                           
  3966                           ;mcc_generated_files/mcc.c: 78:     PMD0 = 0x00;
  3967  0405  014F               	movlb	15	; select bank15
  3968  0406  0196               	clrf	22	;volatile
  3969                           
  3970                           ;mcc_generated_files/mcc.c: 80:     PMD1 = 0x00;
  3971  0407  0197               	clrf	23	;volatile
  3972                           
  3973                           ;mcc_generated_files/mcc.c: 82:     PMD2 = 0x00;
  3974  0408  0198               	clrf	24	;volatile
  3975                           
  3976                           ;mcc_generated_files/mcc.c: 84:     PMD3 = 0x00;
  3977  0409  0199               	clrf	25	;volatile
  3978                           
  3979                           ;mcc_generated_files/mcc.c: 86:     PMD4 = 0x00;
  3980  040A  019A               	clrf	26	;volatile
  3981                           
  3982                           ;mcc_generated_files/mcc.c: 88:     PMD5 = 0x00;
  3983  040B  019B               	clrf	27	;volatile
  3984  040C                     l249:
  3985  040C  0008               	return
  3986  040D                     __end_of_PMD_Initialize:
  3987                           
  3988                           	psect	text12
  3989  0296                     __ptext12:	
  3990 ;; *************** function _PIN_MANAGER_Initialize *****************
  3991 ;; Defined at:
  3992 ;;		line 55 in file "mcc_generated_files/pin_manager.c"
  3993 ;; Parameters:    Size  Location     Type
  3994 ;;		None
  3995 ;; Auto vars:     Size  Location     Type
  3996 ;;		None
  3997 ;; Return value:  Size  Location     Type
  3998 ;;                  1    wreg      void 
  3999 ;; Registers used:
  4000 ;;		wreg, status,2
  4001 ;; Tracked objects:
  4002 ;;		On entry : 0/0
  4003 ;;		On exit  : 0/0
  4004 ;;		Unchanged: 0/0
  4005 ;; Data sizes:     COMMON   BANK0   BANK1   BANK2   BANK3   BANK4   BANK5   BANK6   BANK7   BANK8   BANK9  BANK10  BANK1
      +1  BANK12
  4006 ;;      Params:         0       0       0       0       0       0       0       0       0       0       0       0       
      +0       0
  4007 ;;      Locals:         0       0       0       0       0       0       0       0       0       0       0       0       
      +0       0
  4008 ;;      Temps:          0       0       0       0       0       0       0       0       0       0       0       0       
      +0       0
  4009 ;;      Totals:         0       0       0       0       0       0       0       0       0       0       0       0       
      +0       0
  4010 ;;Total ram usage:        0 bytes
  4011 ;; Hardware stack levels used:    1
  4012 ;; Hardware stack levels required when called:    4
  4013 ;; This function calls:
  4014 ;;		Nothing
  4015 ;; This function is called by:
  4016 ;;		_SYSTEM_Initialize
  4017 ;; This function uses a non-reentrant model
  4018 ;;
  4019                           
  4020                           
  4021                           ;psect for function _PIN_MANAGER_Initialize
  4022  0296                     _PIN_MANAGER_Initialize:
  4023  0296                     l1907:	
  4024                           ;incstack = 0
  4025                           ; Regs used in _PIN_MANAGER_Initialize: [wreg+status,2]
  4026                           
  4027                           
  4028                           ;mcc_generated_files/pin_manager.c: 60:     LATA = 0x00;
  4029  0296  0140               	movlb	0	; select bank0
  4030  0297  0198               	clrf	24	;volatile
  4031                           
  4032                           ;mcc_generated_files/pin_manager.c: 61:     LATB = 0x00;
  4033  0298  0199               	clrf	25	;volatile
  4034                           
  4035                           ;mcc_generated_files/pin_manager.c: 62:     LATC = 0x00;
  4036  0299  019A               	clrf	26	;volatile
  4037  029A                     l1909:
  4038                           
  4039                           ;mcc_generated_files/pin_manager.c: 67:     TRISA = 0x37;
  4040  029A  3037               	movlw	55
  4041  029B  0092               	movwf	18	;volatile
  4042  029C                     l1911:
  4043                           
  4044                           ;mcc_generated_files/pin_manager.c: 68:     TRISB = 0x70;
  4045  029C  3070               	movlw	112
  4046  029D  0093               	movwf	19	;volatile
  4047  029E                     l1913:
  4048                           
  4049                           ;mcc_generated_files/pin_manager.c: 69:     TRISC = 0xFE;
  4050  029E  30FE               	movlw	254
  4051  029F  0094               	movwf	20	;volatile
  4052  02A0                     l1915:
  4053                           
  4054                           ;mcc_generated_files/pin_manager.c: 74:     ANSELC = 0xFD;
  4055  02A0  30FD               	movlw	253
  4056  02A1  017E               	movlb	62	; select bank62
  4057  02A2  00CE               	movwf	78	;volatile
  4058  02A3                     l1917:
  4059                           
  4060                           ;mcc_generated_files/pin_manager.c: 75:     ANSELB = 0xD0;
  4061  02A3  30D0               	movlw	208
  4062  02A4  00C3               	movwf	67	;volatile
  4063  02A5                     l1919:
  4064                           
  4065                           ;mcc_generated_files/pin_manager.c: 76:     ANSELA = 0x37;
  4066  02A5  3037               	movlw	55
  4067  02A6  00B8               	movwf	56	;volatile
  4068                           
  4069                           ;mcc_generated_files/pin_manager.c: 81:     WPUB = 0x00;
  4070  02A7  01C4               	clrf	68	;volatile
  4071                           
  4072                           ;mcc_generated_files/pin_manager.c: 82:     WPUA = 0x00;
  4073  02A8  01B9               	clrf	57	;volatile
  4074                           
  4075                           ;mcc_generated_files/pin_manager.c: 83:     WPUC = 0x00;
  4076  02A9  01CF               	clrf	79	;volatile
  4077                           
  4078                           ;mcc_generated_files/pin_manager.c: 88:     ODCONA = 0x00;
  4079  02AA  01BA               	clrf	58	;volatile
  4080                           
  4081                           ;mcc_generated_files/pin_manager.c: 89:     ODCONB = 0x00;
  4082  02AB  01C5               	clrf	69	;volatile
  4083                           
  4084                           ;mcc_generated_files/pin_manager.c: 90:     ODCONC = 0x00;
  4085  02AC  01D0               	clrf	80	;volatile
  4086  02AD                     l1921:
  4087                           
  4088                           ;mcc_generated_files/pin_manager.c: 95:     SLRCONA = 0x1F;
  4089  02AD  301F               	movlw	31
  4090  02AE  00BB               	movwf	59	;volatile
  4091  02AF                     l1923:
  4092                           
  4093                           ;mcc_generated_files/pin_manager.c: 96:     SLRCONB = 0x00;
  4094  02AF  01C6               	clrf	70	;volatile
  4095                           
  4096                           ;mcc_generated_files/pin_manager.c: 97:     SLRCONC = 0x3F;
  4097  02B0  303F               	movlw	63
  4098  02B1  00D1               	movwf	81	;volatile
  4099                           
  4100                           ;mcc_generated_files/pin_manager.c: 102:     INLVLA = 0x3F;
  4101  02B2  303F               	movlw	63
  4102  02B3  00BC               	movwf	60	;volatile
  4103  02B4                     l1925:
  4104                           
  4105                           ;mcc_generated_files/pin_manager.c: 103:     INLVLB = 0x00;
  4106  02B4  01C7               	clrf	71	;volatile
  4107  02B5                     l1927:
  4108                           
  4109                           ;mcc_generated_files/pin_manager.c: 104:     INLVLC = 0x3F;
  4110  02B5  303F               	movlw	63
  4111  02B6  00D2               	movwf	82	;volatile
  4112  02B7                     l1929:
  4113                           
  4114                           ;mcc_generated_files/pin_manager.c: 113:     RC0PPS = 0x11;
  4115  02B7  3011               	movlw	17
  4116  02B8  00A0               	movwf	32	;volatile
  4117  02B9                     l1931:
  4118                           
  4119                           ;mcc_generated_files/pin_manager.c: 114:     RB7PPS = 0x0F;
  4120  02B9  300F               	movlw	15
  4121  02BA  009F               	movwf	31	;volatile
  4122  02BB                     l1933:
  4123                           
  4124                           ;mcc_generated_files/pin_manager.c: 115:     RX2DTPPS = 0x11;
  4125  02BB  3011               	movlw	17
  4126  02BC  017D               	movlb	61	; select bank61
  4127  02BD  00CD               	movwf	77	;volatile
  4128  02BE                     l1935:
  4129                           
  4130                           ;mcc_generated_files/pin_manager.c: 116:     RX1DTPPS = 0x0D;
  4131  02BE  300D               	movlw	13
  4132  02BF  00CB               	movwf	75	;volatile
  4133  02C0                     l53:
  4134  02C0  0008               	return
  4135  02C1                     __end_of_PIN_MANAGER_Initialize:
  4136                           
  4137                           	psect	text13
  4138  03FB                     __ptext13:	
  4139 ;; *************** function _OSCILLATOR_Initialize *****************
  4140 ;; Defined at:
  4141 ;;		line 59 in file "mcc_generated_files/mcc.c"
  4142 ;; Parameters:    Size  Location     Type
  4143 ;;		None
  4144 ;; Auto vars:     Size  Location     Type
  4145 ;;		None
  4146 ;; Return value:  Size  Location     Type
  4147 ;;                  1    wreg      void 
  4148 ;; Registers used:
  4149 ;;		wreg, status,2
  4150 ;; Tracked objects:
  4151 ;;		On entry : 0/0
  4152 ;;		On exit  : 0/0
  4153 ;;		Unchanged: 0/0
  4154 ;; Data sizes:     COMMON   BANK0   BANK1   BANK2   BANK3   BANK4   BANK5   BANK6   BANK7   BANK8   BANK9  BANK10  BANK1
      +1  BANK12
  4155 ;;      Params:         0       0       0       0       0       0       0       0       0       0       0       0       
      +0       0
  4156 ;;      Locals:         0       0       0       0       0       0       0       0       0       0       0       0       
      +0       0
  4157 ;;      Temps:          0       0       0       0       0       0       0       0       0       0       0       0       
      +0       0
  4158 ;;      Totals:         0       0       0       0       0       0       0       0       0       0       0       0       
      +0       0
  4159 ;;Total ram usage:        0 bytes
  4160 ;; Hardware stack levels used:    1
  4161 ;; Hardware stack levels required when called:    4
  4162 ;; This function calls:
  4163 ;;		Nothing
  4164 ;; This function is called by:
  4165 ;;		_SYSTEM_Initialize
  4166 ;; This function uses a non-reentrant model
  4167 ;;
  4168                           
  4169                           
  4170                           ;psect for function _OSCILLATOR_Initialize
  4171  03FB                     _OSCILLATOR_Initialize:
  4172  03FB                     l1971:	
  4173                           ;incstack = 0
  4174                           ; Regs used in _OSCILLATOR_Initialize: [wreg+status,2]
  4175                           
  4176                           
  4177                           ;mcc_generated_files/mcc.c: 62:     OSCCON1 = 0x62;
  4178  03FB  3062               	movlw	98
  4179  03FC  0151               	movlb	17	; select bank17
  4180  03FD  008D               	movwf	13	;volatile
  4181  03FE                     l1973:
  4182                           
  4183                           ;mcc_generated_files/mcc.c: 64:     OSCCON3 = 0x00;
  4184  03FE  018F               	clrf	15	;volatile
  4185  03FF                     l1975:
  4186                           
  4187                           ;mcc_generated_files/mcc.c: 66:     OSCEN = 0x00;
  4188  03FF  0191               	clrf	17	;volatile
  4189                           
  4190                           ;mcc_generated_files/mcc.c: 68:     OSCFRQ = 0x02;
  4191  0400  3002               	movlw	2
  4192  0401  0093               	movwf	19	;volatile
  4193  0402                     l1977:
  4194                           
  4195                           ;mcc_generated_files/mcc.c: 70:     OSCSTAT = 0x00;
  4196  0402  0190               	clrf	16	;volatile
  4197  0403                     l1979:
  4198                           
  4199                           ;mcc_generated_files/mcc.c: 72:     OSCTUNE = 0x00;
  4200  0403  0192               	clrf	18	;volatile
  4201  0404                     l246:
  4202  0404  0008               	return
  4203  0405                     __end_of_OSCILLATOR_Initialize:
  4204                           
  4205                           	psect	text14
  4206  0362                     __ptext14:	
  4207 ;; *************** function _EUSART2_Initialize *****************
  4208 ;; Defined at:
  4209 ;;		line 66 in file "mcc_generated_files/eusart2.c"
  4210 ;; Parameters:    Size  Location     Type
  4211 ;;		None
  4212 ;; Auto vars:     Size  Location     Type
  4213 ;;		None
  4214 ;; Return value:  Size  Location     Type
  4215 ;;                  1    wreg      void 
  4216 ;; Registers used:
  4217 ;;		wreg, status,2, status,0, pclath, cstack
  4218 ;; Tracked objects:
  4219 ;;		On entry : 0/0
  4220 ;;		On exit  : 0/0
  4221 ;;		Unchanged: 0/0
  4222 ;; Data sizes:     COMMON   BANK0   BANK1   BANK2   BANK3   BANK4   BANK5   BANK6   BANK7   BANK8   BANK9  BANK10  BANK1
      +1  BANK12
  4223 ;;      Params:         0       0       0       0       0       0       0       0       0       0       0       0       
      +0       0
  4224 ;;      Locals:         0       0       0       0       0       0       0       0       0       0       0       0       
      +0       0
  4225 ;;      Temps:          0       0       0       0       0       0       0       0       0       0       0       0       
      +0       0
  4226 ;;      Totals:         0       0       0       0       0       0       0       0       0       0       0       0       
      +0       0
  4227 ;;Total ram usage:        0 bytes
  4228 ;; Hardware stack levels used:    1
  4229 ;; Hardware stack levels required when called:    5
  4230 ;; This function calls:
  4231 ;;		_EUSART2_SetErrorHandler
  4232 ;;		_EUSART2_SetFramingErrorHandler
  4233 ;;		_EUSART2_SetOverrunErrorHandler
  4234 ;; This function is called by:
  4235 ;;		_SYSTEM_Initialize
  4236 ;; This function uses a non-reentrant model
  4237 ;;
  4238                           
  4239                           
  4240                           ;psect for function _EUSART2_Initialize
  4241  0362                     _EUSART2_Initialize:
  4242  0362                     l1981:	
  4243                           ;incstack = 0
  4244                           ; Regs used in _EUSART2_Initialize: [wreg+status,2+status,0+pclath+cstack]
  4245                           
  4246                           
  4247                           ;mcc_generated_files/eusart2.c: 71:     BAUD2CON = 0x08;
  4248  0362  3008               	movlw	8
  4249  0363  0154               	movlb	20	; select bank20
  4250  0364  009F               	movwf	31	;volatile
  4251                           
  4252                           ;mcc_generated_files/eusart2.c: 74:     RC2STA = 0x90;
  4253  0365  3090               	movlw	144
  4254  0366  009D               	movwf	29	;volatile
  4255                           
  4256                           ;mcc_generated_files/eusart2.c: 77:     TX2STA = 0x24;
  4257  0367  3024               	movlw	36
  4258  0368  009E               	movwf	30	;volatile
  4259                           
  4260                           ;mcc_generated_files/eusart2.c: 80:     SP2BRGL = 0x19;
  4261  0369  3019               	movlw	25
  4262  036A  009B               	movwf	27	;volatile
  4263  036B                     l1983:
  4264                           
  4265                           ;mcc_generated_files/eusart2.c: 83:     SP2BRGH = 0x00;
  4266  036B  019C               	clrf	28	;volatile
  4267  036C                     l1985:
  4268                           
  4269                           ;mcc_generated_files/eusart2.c: 86:     EUSART2_SetFramingErrorHandler(EUSART2_DefaultFr
      +                          amingErrorHandler);
  4270  036C  3000               	movlw	0
  4271  036D  00F1               	movwf	EUSART2_SetFramingErrorHandler@interruptHandler
  4272  036E  3000               	movlw	0
  4273  036F  00F2               	movwf	EUSART2_SetFramingErrorHandler@interruptHandler+1
  4274  0370  3184  241F  3183   	fcall	_EUSART2_SetFramingErrorHandler
  4275  0373                     l1987:
  4276                           
  4277                           ;mcc_generated_files/eusart2.c: 87:     EUSART2_SetOverrunErrorHandler(EUSART2_DefaultOv
      +                          errunErrorHandler);
  4278  0373  3000               	movlw	0
  4279  0374  00F1               	movwf	EUSART2_SetOverrunErrorHandler@interruptHandler
  4280  0375  3000               	movlw	0
  4281  0376  00F2               	movwf	EUSART2_SetOverrunErrorHandler@interruptHandler+1
  4282  0377  3184  2419  3183   	fcall	_EUSART2_SetOverrunErrorHandler
  4283  037A                     l1989:
  4284                           
  4285                           ;mcc_generated_files/eusart2.c: 88:     EUSART2_SetErrorHandler(EUSART2_DefaultErrorHand
      +                          ler);
  4286  037A  3000               	movlw	0
  4287  037B  00F1               	movwf	EUSART2_SetErrorHandler@interruptHandler
  4288  037C  3000               	movlw	0
  4289  037D  00F2               	movwf	EUSART2_SetErrorHandler@interruptHandler+1
  4290  037E  3184  2425  3183   	fcall	_EUSART2_SetErrorHandler
  4291  0381                     l1991:
  4292                           
  4293                           ;mcc_generated_files/eusart2.c: 90:     eusart2RxLastError.status = 0;
  4294  0381  0140               	movlb	0	; select bank0
  4295  0382  01D5               	clrf	_eusart2RxLastError	;volatile
  4296  0383                     l292:
  4297  0383  0008               	return
  4298  0384                     __end_of_EUSART2_Initialize:
  4299                           
  4300                           	psect	text15
  4301  0419                     __ptext15:	
  4302 ;; *************** function _EUSART2_SetOverrunErrorHandler *****************
  4303 ;; Defined at:
  4304 ;;		line 161 in file "mcc_generated_files/eusart2.c"
  4305 ;; Parameters:    Size  Location     Type
  4306 ;;  interruptHan    2    1[COMMON] PTR FTN()void 
  4307 ;;		 -> EUSART2_DefaultOverrunErrorHandler(1), 
  4308 ;; Auto vars:     Size  Location     Type
  4309 ;;		None
  4310 ;; Return value:  Size  Location     Type
  4311 ;;                  1    wreg      void 
  4312 ;; Registers used:
  4313 ;;		wreg
  4314 ;; Tracked objects:
  4315 ;;		On entry : 0/0
  4316 ;;		On exit  : 0/0
  4317 ;;		Unchanged: 0/0
  4318 ;; Data sizes:     COMMON   BANK0   BANK1   BANK2   BANK3   BANK4   BANK5   BANK6   BANK7   BANK8   BANK9  BANK10  BANK1
      +1  BANK12
  4319 ;;      Params:         2       0       0       0       0       0       0       0       0       0       0       0       
      +0       0
  4320 ;;      Locals:         0       0       0       0       0       0       0       0       0       0       0       0       
      +0       0
  4321 ;;      Temps:          0       0       0       0       0       0       0       0       0       0       0       0       
      +0       0
  4322 ;;      Totals:         2       0       0       0       0       0       0       0       0       0       0       0       
      +0       0
  4323 ;;Total ram usage:        2 bytes
  4324 ;; Hardware stack levels used:    1
  4325 ;; Hardware stack levels required when called:    4
  4326 ;; This function calls:
  4327 ;;		Nothing
  4328 ;; This function is called by:
  4329 ;;		_EUSART2_Initialize
  4330 ;; This function uses a non-reentrant model
  4331 ;;
  4332                           
  4333                           
  4334                           ;psect for function _EUSART2_SetOverrunErrorHandler
  4335  0419                     _EUSART2_SetOverrunErrorHandler:
  4336  0419                     l1861:	
  4337                           ;incstack = 0
  4338                           ; Regs used in _EUSART2_SetOverrunErrorHandler: [wreg]
  4339                           
  4340                           
  4341                           ;mcc_generated_files/eusart2.c: 162:     EUSART2_OverrunErrorHandler = interruptHandler;
  4342  0419  0872               	movf	EUSART2_SetOverrunErrorHandler@interruptHandler+1,w
  4343  041A  0141               	movlb	1	; select bank1
  4344  041B  00E7               	movwf	(_EUSART2_OverrunErrorHandler+1)^(0+128)
  4345  041C  0871               	movf	EUSART2_SetOverrunErrorHandler@interruptHandler,w
  4346  041D  00E6               	movwf	_EUSART2_OverrunErrorHandler^(0+128)
  4347  041E                     l334:
  4348  041E  0008               	return
  4349  041F                     __end_of_EUSART2_SetOverrunErrorHandler:
  4350                           
  4351                           	psect	text16
  4352  041F                     __ptext16:	
  4353 ;; *************** function _EUSART2_SetFramingErrorHandler *****************
  4354 ;; Defined at:
  4355 ;;		line 157 in file "mcc_generated_files/eusart2.c"
  4356 ;; Parameters:    Size  Location     Type
  4357 ;;  interruptHan    2    1[COMMON] PTR FTN()void 
  4358 ;;		 -> EUSART2_DefaultFramingErrorHandler(1), 
  4359 ;; Auto vars:     Size  Location     Type
  4360 ;;		None
  4361 ;; Return value:  Size  Location     Type
  4362 ;;                  1    wreg      void 
  4363 ;; Registers used:
  4364 ;;		wreg
  4365 ;; Tracked objects:
  4366 ;;		On entry : 0/0
  4367 ;;		On exit  : 0/0
  4368 ;;		Unchanged: 0/0
  4369 ;; Data sizes:     COMMON   BANK0   BANK1   BANK2   BANK3   BANK4   BANK5   BANK6   BANK7   BANK8   BANK9  BANK10  BANK1
      +1  BANK12
  4370 ;;      Params:         2       0       0       0       0       0       0       0       0       0       0       0       
      +0       0
  4371 ;;      Locals:         0       0       0       0       0       0       0       0       0       0       0       0       
      +0       0
  4372 ;;      Temps:          0       0       0       0       0       0       0       0       0       0       0       0       
      +0       0
  4373 ;;      Totals:         2       0       0       0       0       0       0       0       0       0       0       0       
      +0       0
  4374 ;;Total ram usage:        2 bytes
  4375 ;; Hardware stack levels used:    1
  4376 ;; Hardware stack levels required when called:    4
  4377 ;; This function calls:
  4378 ;;		Nothing
  4379 ;; This function is called by:
  4380 ;;		_EUSART2_Initialize
  4381 ;; This function uses a non-reentrant model
  4382 ;;
  4383                           
  4384                           
  4385                           ;psect for function _EUSART2_SetFramingErrorHandler
  4386  041F                     _EUSART2_SetFramingErrorHandler:
  4387  041F                     l1859:	
  4388                           ;incstack = 0
  4389                           ; Regs used in _EUSART2_SetFramingErrorHandler: [wreg]
  4390                           
  4391                           
  4392                           ;mcc_generated_files/eusart2.c: 158:     EUSART2_FramingErrorHandler = interruptHandler;
  4393  041F  0872               	movf	EUSART2_SetFramingErrorHandler@interruptHandler+1,w
  4394  0420  0141               	movlb	1	; select bank1
  4395  0421  00E9               	movwf	(_EUSART2_FramingErrorHandler+1)^(0+128)
  4396  0422  0871               	movf	EUSART2_SetFramingErrorHandler@interruptHandler,w
  4397  0423  00E8               	movwf	_EUSART2_FramingErrorHandler^(0+128)
  4398  0424                     l331:
  4399  0424  0008               	return
  4400  0425                     __end_of_EUSART2_SetFramingErrorHandler:
  4401                           
  4402                           	psect	text17
  4403  0425                     __ptext17:	
  4404 ;; *************** function _EUSART2_SetErrorHandler *****************
  4405 ;; Defined at:
  4406 ;;		line 165 in file "mcc_generated_files/eusart2.c"
  4407 ;; Parameters:    Size  Location     Type
  4408 ;;  interruptHan    2    1[COMMON] PTR FTN()void 
  4409 ;;		 -> EUSART2_DefaultErrorHandler(1), 
  4410 ;; Auto vars:     Size  Location     Type
  4411 ;;		None
  4412 ;; Return value:  Size  Location     Type
  4413 ;;                  1    wreg      void 
  4414 ;; Registers used:
  4415 ;;		wreg
  4416 ;; Tracked objects:
  4417 ;;		On entry : 0/0
  4418 ;;		On exit  : 0/0
  4419 ;;		Unchanged: 0/0
  4420 ;; Data sizes:     COMMON   BANK0   BANK1   BANK2   BANK3   BANK4   BANK5   BANK6   BANK7   BANK8   BANK9  BANK10  BANK1
      +1  BANK12
  4421 ;;      Params:         2       0       0       0       0       0       0       0       0       0       0       0       
      +0       0
  4422 ;;      Locals:         0       0       0       0       0       0       0       0       0       0       0       0       
      +0       0
  4423 ;;      Temps:          0       0       0       0       0       0       0       0       0       0       0       0       
      +0       0
  4424 ;;      Totals:         2       0       0       0       0       0       0       0       0       0       0       0       
      +0       0
  4425 ;;Total ram usage:        2 bytes
  4426 ;; Hardware stack levels used:    1
  4427 ;; Hardware stack levels required when called:    4
  4428 ;; This function calls:
  4429 ;;		Nothing
  4430 ;; This function is called by:
  4431 ;;		_EUSART2_Initialize
  4432 ;; This function uses a non-reentrant model
  4433 ;;
  4434                           
  4435                           
  4436                           ;psect for function _EUSART2_SetErrorHandler
  4437  0425                     _EUSART2_SetErrorHandler:
  4438  0425                     l1863:	
  4439                           ;incstack = 0
  4440                           ; Regs used in _EUSART2_SetErrorHandler: [wreg]
  4441                           
  4442                           
  4443                           ;mcc_generated_files/eusart2.c: 166:     EUSART2_ErrorHandler = interruptHandler;
  4444  0425  0872               	movf	EUSART2_SetErrorHandler@interruptHandler+1,w
  4445  0426  0141               	movlb	1	; select bank1
  4446  0427  00E5               	movwf	(_EUSART2_ErrorHandler+1)^(0+128)
  4447  0428  0871               	movf	EUSART2_SetErrorHandler@interruptHandler,w
  4448  0429  00E4               	movwf	_EUSART2_ErrorHandler^(0+128)
  4449  042A                     l337:
  4450  042A  0008               	return
  4451  042B                     __end_of_EUSART2_SetErrorHandler:
  4452                           
  4453                           	psect	text18
  4454  01ED                     __ptext18:	
  4455 ;; *************** function _EUSART1_Initialize *****************
  4456 ;; Defined at:
  4457 ;;		line 88 in file "mcc_generated_files/eusart1.c"
  4458 ;; Parameters:    Size  Location     Type
  4459 ;;		None
  4460 ;; Auto vars:     Size  Location     Type
  4461 ;;		None
  4462 ;; Return value:  Size  Location     Type
  4463 ;;                  1    wreg      void 
  4464 ;; Registers used:
  4465 ;;		wreg, status,2, status,0, pclath, cstack
  4466 ;; Tracked objects:
  4467 ;;		On entry : 0/0
  4468 ;;		On exit  : 0/0
  4469 ;;		Unchanged: 0/0
  4470 ;; Data sizes:     COMMON   BANK0   BANK1   BANK2   BANK3   BANK4   BANK5   BANK6   BANK7   BANK8   BANK9  BANK10  BANK1
      +1  BANK12
  4471 ;;      Params:         0       0       0       0       0       0       0       0       0       0       0       0       
      +0       0
  4472 ;;      Locals:         0       0       0       0       0       0       0       0       0       0       0       0       
      +0       0
  4473 ;;      Temps:          1       0       0       0       0       0       0       0       0       0       0       0       
      +0       0
  4474 ;;      Totals:         1       0       0       0       0       0       0       0       0       0       0       0       
      +0       0
  4475 ;;Total ram usage:        1 bytes
  4476 ;; Hardware stack levels used:    1
  4477 ;; Hardware stack levels required when called:    5
  4478 ;; This function calls:
  4479 ;;		_EUSART1_SetErrorHandler
  4480 ;;		_EUSART1_SetFramingErrorHandler
  4481 ;;		_EUSART1_SetOverrunErrorHandler
  4482 ;;		_EUSART1_SetRxInterruptHandler
  4483 ;;		_EUSART1_SetTxInterruptHandler
  4484 ;; This function is called by:
  4485 ;;		_SYSTEM_Initialize
  4486 ;; This function uses a non-reentrant model
  4487 ;;
  4488                           
  4489                           
  4490                           ;psect for function _EUSART1_Initialize
  4491  01ED                     _EUSART1_Initialize:
  4492  01ED                     l1937:	
  4493                           ;incstack = 0
  4494                           ; Regs used in _EUSART1_Initialize: [wreg+status,2+status,0+pclath+cstack]
  4495                           
  4496                           
  4497                           ;mcc_generated_files/eusart1.c: 91:     PIE3bits.RC1IE = 0;
  4498  01ED  014E               	movlb	14	; select bank14
  4499  01EE  1299               	bcf	25,5	;volatile
  4500  01EF                     l1939:
  4501                           
  4502                           ;mcc_generated_files/eusart1.c: 92:     EUSART1_SetRxInterruptHandler(EUSART1_Receive_IS
      +                          R);
  4503  01EF  302C               	movlw	low _EUSART1_Receive_ISR
  4504  01F0  00F1               	movwf	EUSART1_SetRxInterruptHandler@interruptHandler
  4505  01F1  3002               	movlw	high _EUSART1_Receive_ISR
  4506  01F2  00F2               	movwf	EUSART1_SetRxInterruptHandler@interruptHandler+1
  4507  01F3  3184  2431  3181   	fcall	_EUSART1_SetRxInterruptHandler
  4508  01F6                     l1941:
  4509                           
  4510                           ;mcc_generated_files/eusart1.c: 93:     PIE3bits.TX1IE = 0;
  4511  01F6  014E               	movlb	14	; select bank14
  4512  01F7  1219               	bcf	25,4	;volatile
  4513                           
  4514                           ;mcc_generated_files/eusart1.c: 94:     EUSART1_SetTxInterruptHandler(EUSART1_Transmit_I
      +                          SR);
  4515  01F8  3084               	movlw	low _EUSART1_Transmit_ISR
  4516  01F9  00F1               	movwf	EUSART1_SetTxInterruptHandler@interruptHandler
  4517  01FA  3003               	movlw	high _EUSART1_Transmit_ISR
  4518  01FB  00F2               	movwf	EUSART1_SetTxInterruptHandler@interruptHandler+1
  4519  01FC  3184  242B  3181   	fcall	_EUSART1_SetTxInterruptHandler
  4520  01FF                     l1943:
  4521                           
  4522                           ;mcc_generated_files/eusart1.c: 98:     BAUD1CON = 0x08;
  4523  01FF  3008               	movlw	8
  4524  0200  0142               	movlb	2	; select bank2
  4525  0201  009F               	movwf	31	;volatile
  4526  0202                     l1945:
  4527                           
  4528                           ;mcc_generated_files/eusart1.c: 101:     RC1STA = 0x90;
  4529  0202  3090               	movlw	144
  4530  0203  009D               	movwf	29	;volatile
  4531  0204                     l1947:
  4532                           
  4533                           ;mcc_generated_files/eusart1.c: 104:     TX1STA = 0x24;
  4534  0204  3024               	movlw	36
  4535  0205  009E               	movwf	30	;volatile
  4536  0206                     l1949:
  4537                           
  4538                           ;mcc_generated_files/eusart1.c: 107:     SP1BRGL = 0x19;
  4539  0206  3019               	movlw	25
  4540  0207  009B               	movwf	27	;volatile
  4541  0208                     l1951:
  4542                           
  4543                           ;mcc_generated_files/eusart1.c: 110:     SP1BRGH = 0x00;
  4544  0208  019C               	clrf	28	;volatile
  4545  0209                     l1953:
  4546                           
  4547                           ;mcc_generated_files/eusart1.c: 113:     EUSART1_SetFramingErrorHandler(EUSART1_DefaultF
      +                          ramingErrorHandler);
  4548  0209  3051               	movlw	low _EUSART1_DefaultFramingErrorHandler
  4549  020A  00F1               	movwf	EUSART1_SetFramingErrorHandler@interruptHandler
  4550  020B  3004               	movlw	high _EUSART1_DefaultFramingErrorHandler
  4551  020C  00F2               	movwf	EUSART1_SetFramingErrorHandler@interruptHandler+1
  4552  020D  3184  243D  3181   	fcall	_EUSART1_SetFramingErrorHandler
  4553  0210                     l1955:
  4554                           
  4555                           ;mcc_generated_files/eusart1.c: 114:     EUSART1_SetOverrunErrorHandler(EUSART1_DefaultO
      +                          verrunErrorHandler);
  4556  0210  3049               	movlw	low _EUSART1_DefaultOverrunErrorHandler
  4557  0211  00F1               	movwf	EUSART1_SetOverrunErrorHandler@interruptHandler
  4558  0212  3004               	movlw	high _EUSART1_DefaultOverrunErrorHandler
  4559  0213  00F2               	movwf	EUSART1_SetOverrunErrorHandler@interruptHandler+1
  4560  0214  3184  2437  3181   	fcall	_EUSART1_SetOverrunErrorHandler
  4561  0217                     l1957:
  4562                           
  4563                           ;mcc_generated_files/eusart1.c: 115:     EUSART1_SetErrorHandler(EUSART1_DefaultErrorHan
      +                          dler);
  4564  0217  304D               	movlw	low _EUSART1_DefaultErrorHandler
  4565  0218  00F1               	movwf	EUSART1_SetErrorHandler@interruptHandler
  4566  0219  3004               	movlw	high _EUSART1_DefaultErrorHandler
  4567  021A  00F2               	movwf	EUSART1_SetErrorHandler@interruptHandler+1
  4568  021B  3184  2443  3181   	fcall	_EUSART1_SetErrorHandler
  4569                           
  4570                           ;mcc_generated_files/eusart1.c: 117:     eusart1RxLastError.status = 0;
  4571  021E  0140               	movlb	0	; select bank0
  4572  021F  01D6               	clrf	_eusart1RxLastError	;volatile
  4573                           
  4574                           ;mcc_generated_files/eusart1.c: 120:     eusart1TxHead = 0;
  4575  0220  01DA               	clrf	_eusart1TxHead	;volatile
  4576                           
  4577                           ;mcc_generated_files/eusart1.c: 121:     eusart1TxTail = 0;
  4578  0221  01D9               	clrf	_eusart1TxTail	;volatile
  4579  0222                     l1959:
  4580                           
  4581                           ;mcc_generated_files/eusart1.c: 122:     eusart1TxBufferRemaining = sizeof(eusart1TxBuff
      +                          er);
  4582  0222  3008               	movlw	8
  4583  0223  00F3               	movwf	??_EUSART1_Initialize
  4584  0224  0873               	movf	??_EUSART1_Initialize,w
  4585  0225  00DF               	movwf	_eusart1TxBufferRemaining	;volatile
  4586  0226                     l1961:
  4587                           
  4588                           ;mcc_generated_files/eusart1.c: 124:     eusart1RxHead = 0;
  4589  0226  01FC               	clrf	_eusart1RxHead	;volatile
  4590  0227                     l1963:
  4591                           
  4592                           ;mcc_generated_files/eusart1.c: 125:     eusart1RxTail = 0;
  4593  0227  01D8               	clrf	_eusart1RxTail	;volatile
  4594  0228                     l1965:
  4595                           
  4596                           ;mcc_generated_files/eusart1.c: 126:     eusart1RxCount = 0;
  4597  0228  01D7               	clrf	_eusart1RxCount	;volatile
  4598  0229                     l1967:
  4599                           
  4600                           ;mcc_generated_files/eusart1.c: 129:     PIE3bits.RC1IE = 1;
  4601  0229  014E               	movlb	14	; select bank14
  4602  022A  1699               	bsf	25,5	;volatile
  4603  022B                     l131:
  4604  022B  0008               	return
  4605  022C                     __end_of_EUSART1_Initialize:
  4606                           
  4607                           	psect	text19
  4608  042B                     __ptext19:	
  4609 ;; *************** function _EUSART1_SetTxInterruptHandler *****************
  4610 ;; Defined at:
  4611 ;;		line 285 in file "mcc_generated_files/eusart1.c"
  4612 ;; Parameters:    Size  Location     Type
  4613 ;;  interruptHan    2    1[COMMON] PTR FTN()void 
  4614 ;;		 -> EUSART1_Transmit_ISR(1), 
  4615 ;; Auto vars:     Size  Location     Type
  4616 ;;		None
  4617 ;; Return value:  Size  Location     Type
  4618 ;;                  1    wreg      void 
  4619 ;; Registers used:
  4620 ;;		wreg
  4621 ;; Tracked objects:
  4622 ;;		On entry : 0/0
  4623 ;;		On exit  : 0/0
  4624 ;;		Unchanged: 0/0
  4625 ;; Data sizes:     COMMON   BANK0   BANK1   BANK2   BANK3   BANK4   BANK5   BANK6   BANK7   BANK8   BANK9  BANK10  BANK1
      +1  BANK12
  4626 ;;      Params:         2       0       0       0       0       0       0       0       0       0       0       0       
      +0       0
  4627 ;;      Locals:         0       0       0       0       0       0       0       0       0       0       0       0       
      +0       0
  4628 ;;      Temps:          0       0       0       0       0       0       0       0       0       0       0       0       
      +0       0
  4629 ;;      Totals:         2       0       0       0       0       0       0       0       0       0       0       0       
      +0       0
  4630 ;;Total ram usage:        2 bytes
  4631 ;; Hardware stack levels used:    1
  4632 ;; Hardware stack levels required when called:    4
  4633 ;; This function calls:
  4634 ;;		Nothing
  4635 ;; This function is called by:
  4636 ;;		_EUSART1_Initialize
  4637 ;; This function uses a non-reentrant model
  4638 ;;
  4639                           
  4640                           
  4641                           ;psect for function _EUSART1_SetTxInterruptHandler
  4642  042B                     _EUSART1_SetTxInterruptHandler:
  4643  042B                     l1851:	
  4644                           ;incstack = 0
  4645                           ; Regs used in _EUSART1_SetTxInterruptHandler: [wreg]
  4646                           
  4647                           
  4648                           ;mcc_generated_files/eusart1.c: 286:     EUSART1_TxDefaultInterruptHandler = interruptHa
      +                          ndler;
  4649  042B  0872               	movf	EUSART1_SetTxInterruptHandler@interruptHandler+1,w
  4650  042C  0140               	movlb	0	; select bank0
  4651  042D  00DE               	movwf	_EUSART1_TxDefaultInterruptHandler+1
  4652  042E  0871               	movf	EUSART1_SetTxInterruptHandler@interruptHandler,w
  4653  042F  00DD               	movwf	_EUSART1_TxDefaultInterruptHandler
  4654  0430                     l203:
  4655  0430  0008               	return
  4656  0431                     __end_of_EUSART1_SetTxInterruptHandler:
  4657                           
  4658                           	psect	text20
  4659  0431                     __ptext20:	
  4660 ;; *************** function _EUSART1_SetRxInterruptHandler *****************
  4661 ;; Defined at:
  4662 ;;		line 289 in file "mcc_generated_files/eusart1.c"
  4663 ;; Parameters:    Size  Location     Type
  4664 ;;  interruptHan    2    1[COMMON] PTR FTN()void 
  4665 ;;		 -> EUSART1_Receive_ISR(1), 
  4666 ;; Auto vars:     Size  Location     Type
  4667 ;;		None
  4668 ;; Return value:  Size  Location     Type
  4669 ;;                  1    wreg      void 
  4670 ;; Registers used:
  4671 ;;		wreg
  4672 ;; Tracked objects:
  4673 ;;		On entry : 0/0
  4674 ;;		On exit  : 0/0
  4675 ;;		Unchanged: 0/0
  4676 ;; Data sizes:     COMMON   BANK0   BANK1   BANK2   BANK3   BANK4   BANK5   BANK6   BANK7   BANK8   BANK9  BANK10  BANK1
      +1  BANK12
  4677 ;;      Params:         2       0       0       0       0       0       0       0       0       0       0       0       
      +0       0
  4678 ;;      Locals:         0       0       0       0       0       0       0       0       0       0       0       0       
      +0       0
  4679 ;;      Temps:          0       0       0       0       0       0       0       0       0       0       0       0       
      +0       0
  4680 ;;      Totals:         2       0       0       0       0       0       0       0       0       0       0       0       
      +0       0
  4681 ;;Total ram usage:        2 bytes
  4682 ;; Hardware stack levels used:    1
  4683 ;; Hardware stack levels required when called:    4
  4684 ;; This function calls:
  4685 ;;		Nothing
  4686 ;; This function is called by:
  4687 ;;		_EUSART1_Initialize
  4688 ;; This function uses a non-reentrant model
  4689 ;;
  4690                           
  4691                           
  4692                           ;psect for function _EUSART1_SetRxInterruptHandler
  4693  0431                     _EUSART1_SetRxInterruptHandler:
  4694  0431                     l1849:	
  4695                           ;incstack = 0
  4696                           ; Regs used in _EUSART1_SetRxInterruptHandler: [wreg]
  4697                           
  4698                           
  4699                           ;mcc_generated_files/eusart1.c: 290:     EUSART1_RxDefaultInterruptHandler = interruptHa
      +                          ndler;
  4700  0431  0872               	movf	EUSART1_SetRxInterruptHandler@interruptHandler+1,w
  4701  0432  0140               	movlb	0	; select bank0
  4702  0433  00DC               	movwf	_EUSART1_RxDefaultInterruptHandler+1
  4703  0434  0871               	movf	EUSART1_SetRxInterruptHandler@interruptHandler,w
  4704  0435  00DB               	movwf	_EUSART1_RxDefaultInterruptHandler
  4705  0436                     l206:
  4706  0436  0008               	return
  4707  0437                     __end_of_EUSART1_SetRxInterruptHandler:
  4708                           
  4709                           	psect	text21
  4710  0437                     __ptext21:	
  4711 ;; *************** function _EUSART1_SetOverrunErrorHandler *****************
  4712 ;; Defined at:
  4713 ;;		line 277 in file "mcc_generated_files/eusart1.c"
  4714 ;; Parameters:    Size  Location     Type
  4715 ;;  interruptHan    2    1[COMMON] PTR FTN()void 
  4716 ;;		 -> EUSART1_DefaultOverrunErrorHandler(1), 
  4717 ;; Auto vars:     Size  Location     Type
  4718 ;;		None
  4719 ;; Return value:  Size  Location     Type
  4720 ;;                  1    wreg      void 
  4721 ;; Registers used:
  4722 ;;		wreg
  4723 ;; Tracked objects:
  4724 ;;		On entry : 0/0
  4725 ;;		On exit  : 0/0
  4726 ;;		Unchanged: 0/0
  4727 ;; Data sizes:     COMMON   BANK0   BANK1   BANK2   BANK3   BANK4   BANK5   BANK6   BANK7   BANK8   BANK9  BANK10  BANK1
      +1  BANK12
  4728 ;;      Params:         2       0       0       0       0       0       0       0       0       0       0       0       
      +0       0
  4729 ;;      Locals:         0       0       0       0       0       0       0       0       0       0       0       0       
      +0       0
  4730 ;;      Temps:          0       0       0       0       0       0       0       0       0       0       0       0       
      +0       0
  4731 ;;      Totals:         2       0       0       0       0       0       0       0       0       0       0       0       
      +0       0
  4732 ;;Total ram usage:        2 bytes
  4733 ;; Hardware stack levels used:    1
  4734 ;; Hardware stack levels required when called:    4
  4735 ;; This function calls:
  4736 ;;		Nothing
  4737 ;; This function is called by:
  4738 ;;		_EUSART1_Initialize
  4739 ;; This function uses a non-reentrant model
  4740 ;;
  4741                           
  4742                           
  4743                           ;psect for function _EUSART1_SetOverrunErrorHandler
  4744  0437                     _EUSART1_SetOverrunErrorHandler:
  4745  0437                     l1855:	
  4746                           ;incstack = 0
  4747                           ; Regs used in _EUSART1_SetOverrunErrorHandler: [wreg]
  4748                           
  4749                           
  4750                           ;mcc_generated_files/eusart1.c: 278:     EUSART1_OverrunErrorHandler = interruptHandler;
  4751  0437  0872               	movf	EUSART1_SetOverrunErrorHandler@interruptHandler+1,w
  4752  0438  0141               	movlb	1	; select bank1
  4753  0439  00ED               	movwf	(_EUSART1_OverrunErrorHandler+1)^(0+128)
  4754  043A  0871               	movf	EUSART1_SetOverrunErrorHandler@interruptHandler,w
  4755  043B  00EC               	movwf	_EUSART1_OverrunErrorHandler^(0+128)
  4756  043C                     l197:
  4757  043C  0008               	return
  4758  043D                     __end_of_EUSART1_SetOverrunErrorHandler:
  4759                           
  4760                           	psect	text22
  4761  043D                     __ptext22:	
  4762 ;; *************** function _EUSART1_SetFramingErrorHandler *****************
  4763 ;; Defined at:
  4764 ;;		line 273 in file "mcc_generated_files/eusart1.c"
  4765 ;; Parameters:    Size  Location     Type
  4766 ;;  interruptHan    2    1[COMMON] PTR FTN()void 
  4767 ;;		 -> EUSART1_DefaultFramingErrorHandler(1), 
  4768 ;; Auto vars:     Size  Location     Type
  4769 ;;		None
  4770 ;; Return value:  Size  Location     Type
  4771 ;;                  1    wreg      void 
  4772 ;; Registers used:
  4773 ;;		wreg
  4774 ;; Tracked objects:
  4775 ;;		On entry : 0/0
  4776 ;;		On exit  : 0/0
  4777 ;;		Unchanged: 0/0
  4778 ;; Data sizes:     COMMON   BANK0   BANK1   BANK2   BANK3   BANK4   BANK5   BANK6   BANK7   BANK8   BANK9  BANK10  BANK1
      +1  BANK12
  4779 ;;      Params:         2       0       0       0       0       0       0       0       0       0       0       0       
      +0       0
  4780 ;;      Locals:         0       0       0       0       0       0       0       0       0       0       0       0       
      +0       0
  4781 ;;      Temps:          0       0       0       0       0       0       0       0       0       0       0       0       
      +0       0
  4782 ;;      Totals:         2       0       0       0       0       0       0       0       0       0       0       0       
      +0       0
  4783 ;;Total ram usage:        2 bytes
  4784 ;; Hardware stack levels used:    1
  4785 ;; Hardware stack levels required when called:    4
  4786 ;; This function calls:
  4787 ;;		Nothing
  4788 ;; This function is called by:
  4789 ;;		_EUSART1_Initialize
  4790 ;; This function uses a non-reentrant model
  4791 ;;
  4792                           
  4793                           
  4794                           ;psect for function _EUSART1_SetFramingErrorHandler
  4795  043D                     _EUSART1_SetFramingErrorHandler:
  4796  043D                     l1853:	
  4797                           ;incstack = 0
  4798                           ; Regs used in _EUSART1_SetFramingErrorHandler: [wreg]
  4799                           
  4800                           
  4801                           ;mcc_generated_files/eusart1.c: 274:     EUSART1_FramingErrorHandler = interruptHandler;
  4802  043D  0872               	movf	EUSART1_SetFramingErrorHandler@interruptHandler+1,w
  4803  043E  0141               	movlb	1	; select bank1
  4804  043F  00EF               	movwf	(_EUSART1_FramingErrorHandler+1)^(0+128)
  4805  0440  0871               	movf	EUSART1_SetFramingErrorHandler@interruptHandler,w
  4806  0441  00EE               	movwf	_EUSART1_FramingErrorHandler^(0+128)
  4807  0442                     l194:
  4808  0442  0008               	return
  4809  0443                     __end_of_EUSART1_SetFramingErrorHandler:
  4810                           
  4811                           	psect	text23
  4812  0443                     __ptext23:	
  4813 ;; *************** function _EUSART1_SetErrorHandler *****************
  4814 ;; Defined at:
  4815 ;;		line 281 in file "mcc_generated_files/eusart1.c"
  4816 ;; Parameters:    Size  Location     Type
  4817 ;;  interruptHan    2    1[COMMON] PTR FTN()void 
  4818 ;;		 -> EUSART1_DefaultErrorHandler(1), 
  4819 ;; Auto vars:     Size  Location     Type
  4820 ;;		None
  4821 ;; Return value:  Size  Location     Type
  4822 ;;                  1    wreg      void 
  4823 ;; Registers used:
  4824 ;;		wreg
  4825 ;; Tracked objects:
  4826 ;;		On entry : 0/0
  4827 ;;		On exit  : 0/0
  4828 ;;		Unchanged: 0/0
  4829 ;; Data sizes:     COMMON   BANK0   BANK1   BANK2   BANK3   BANK4   BANK5   BANK6   BANK7   BANK8   BANK9  BANK10  BANK1
      +1  BANK12
  4830 ;;      Params:         2       0       0       0       0       0       0       0       0       0       0       0       
      +0       0
  4831 ;;      Locals:         0       0       0       0       0       0       0       0       0       0       0       0       
      +0       0
  4832 ;;      Temps:          0       0       0       0       0       0       0       0       0       0       0       0       
      +0       0
  4833 ;;      Totals:         2       0       0       0       0       0       0       0       0       0       0       0       
      +0       0
  4834 ;;Total ram usage:        2 bytes
  4835 ;; Hardware stack levels used:    1
  4836 ;; Hardware stack levels required when called:    4
  4837 ;; This function calls:
  4838 ;;		Nothing
  4839 ;; This function is called by:
  4840 ;;		_EUSART1_Initialize
  4841 ;; This function uses a non-reentrant model
  4842 ;;
  4843                           
  4844                           
  4845                           ;psect for function _EUSART1_SetErrorHandler
  4846  0443                     _EUSART1_SetErrorHandler:
  4847  0443                     l1857:	
  4848                           ;incstack = 0
  4849                           ; Regs used in _EUSART1_SetErrorHandler: [wreg]
  4850                           
  4851                           
  4852                           ;mcc_generated_files/eusart1.c: 282:     EUSART1_ErrorHandler = interruptHandler;
  4853  0443  0872               	movf	EUSART1_SetErrorHandler@interruptHandler+1,w
  4854  0444  0141               	movlb	1	; select bank1
  4855  0445  00EB               	movwf	(_EUSART1_ErrorHandler+1)^(0+128)
  4856  0446  0871               	movf	EUSART1_SetErrorHandler@interruptHandler,w
  4857  0447  00EA               	movwf	_EUSART1_ErrorHandler^(0+128)
  4858  0448                     l200:
  4859  0448  0008               	return
  4860  0449                     __end_of_EUSART1_SetErrorHandler:
  4861                           
  4862                           	psect	text24
  4863  02EB                     __ptext24:	
  4864 ;; *************** function _EUSART1_Read *****************
  4865 ;; Defined at:
  4866 ;;		line 151 in file "mcc_generated_files/eusart1.c"
  4867 ;; Parameters:    Size  Location     Type
  4868 ;;		None
  4869 ;; Auto vars:     Size  Location     Type
  4870 ;;  readValue       1    2[COMMON] unsigned char 
  4871 ;; Return value:  Size  Location     Type
  4872 ;;                  1    wreg      unsigned char 
  4873 ;; Registers used:
  4874 ;;		wreg, fsr1l, fsr1h, status,2, status,0
  4875 ;; Tracked objects:
  4876 ;;		On entry : 0/0
  4877 ;;		On exit  : 0/0
  4878 ;;		Unchanged: 0/0
  4879 ;; Data sizes:     COMMON   BANK0   BANK1   BANK2   BANK3   BANK4   BANK5   BANK6   BANK7   BANK8   BANK9  BANK10  BANK1
      +1  BANK12
  4880 ;;      Params:         0       0       0       0       0       0       0       0       0       0       0       0       
      +0       0
  4881 ;;      Locals:         1       0       0       0       0       0       0       0       0       0       0       0       
      +0       0
  4882 ;;      Temps:          1       0       0       0       0       0       0       0       0       0       0       0       
      +0       0
  4883 ;;      Totals:         2       0       0       0       0       0       0       0       0       0       0       0       
      +0       0
  4884 ;;Total ram usage:        2 bytes
  4885 ;; Hardware stack levels used:    1
  4886 ;; Hardware stack levels required when called:    4
  4887 ;; This function calls:
  4888 ;;		Nothing
  4889 ;; This function is called by:
  4890 ;;		_main
  4891 ;;		_getch
  4892 ;; This function uses a non-reentrant model
  4893 ;;
  4894                           
  4895                           
  4896                           ;psect for function _EUSART1_Read
  4897  02EB                     _EUSART1_Read:
  4898  02EB                     l2005:	
  4899                           ;incstack = 0
  4900                           ; Regs used in _EUSART1_Read: [wreg+fsr1l+fsr1h+status,2+status,0]
  4901                           
  4902  02EB                     l2007:	
  4903                           ;mcc_generated_files/eusart1.c: 155:     while(0 == eusart1RxCount)
  4904                           
  4905                           
  4906                           ;mcc_generated_files/eusart1.c: 155:     while(0 == eusart1RxCount)
  4907  02EB  0140               	movlb	0	; select bank0
  4908  02EC  0857               	movf	_eusart1RxCount,w	;volatile
  4909  02ED  1903               	btfsc	3,2
  4910  02EE  2AF0               	goto	u901
  4911  02EF  2AF1               	goto	u900
  4912  02F0                     u901:
  4913  02F0  2AEB               	goto	l2007
  4914  02F1                     u900:
  4915  02F1                     l2009:
  4916                           
  4917                           ;mcc_generated_files/eusart1.c: 159:     eusart1RxLastError = eusart1RxStatusBuffer[eusa
      +                          rt1RxTail];
  4918  02F1  0858               	movf	_eusart1RxTail,w	;volatile
  4919  02F2  3E45               	addlw	(low (_eusart1RxStatusBuffer| 0))& (0+255)
  4920  02F3  0086               	movwf	6
  4921  02F4  0187               	clrf	7
  4922  02F5  0801               	movf	1,w
  4923  02F6  00F1               	movwf	??_EUSART1_Read
  4924  02F7  0871               	movf	??_EUSART1_Read,w
  4925  02F8  00D6               	movwf	_eusart1RxLastError	;volatile
  4926                           
  4927                           ;mcc_generated_files/eusart1.c: 161:     readValue = eusart1RxBuffer[eusart1RxTail++];
  4928  02F9  0858               	movf	_eusart1RxTail,w
  4929  02FA  3ED4               	addlw	(low (_eusart1RxBuffer| 0))& (0+255)
  4930  02FB  0086               	movwf	6
  4931  02FC  0187               	clrf	7
  4932  02FD  0801               	movf	1,w
  4933  02FE  00F1               	movwf	??_EUSART1_Read
  4934  02FF  0871               	movf	??_EUSART1_Read,w
  4935  0300  00F2               	movwf	EUSART1_Read@readValue
  4936  0301                     l2011:
  4937  0301  3001               	movlw	1
  4938  0302  00F1               	movwf	??_EUSART1_Read
  4939  0303  0871               	movf	??_EUSART1_Read,w
  4940  0304  07D8               	addwf	_eusart1RxTail,f	;volatile
  4941  0305                     l2013:
  4942                           
  4943                           ;mcc_generated_files/eusart1.c: 162:     if(sizeof(eusart1RxBuffer) <= eusart1RxTail)
  4944  0305  3008               	movlw	8
  4945  0306  0258               	subwf	_eusart1RxTail,w	;volatile
  4946  0307  1C03               	skipc
  4947  0308  2B0A               	goto	u911
  4948  0309  2B0B               	goto	u910
  4949  030A                     u911:
  4950  030A  2B0C               	goto	l2017
  4951  030B                     u910:
  4952  030B                     l2015:
  4953                           
  4954                           ;mcc_generated_files/eusart1.c: 163:     {;mcc_generated_files/eusart1.c: 164:         e
      +                          usart1RxTail = 0;
  4955  030B  01D8               	clrf	_eusart1RxTail	;volatile
  4956  030C                     l2017:
  4957                           
  4958                           ;mcc_generated_files/eusart1.c: 166:     PIE3bits.RC1IE = 0;
  4959  030C  014E               	movlb	14	; select bank14
  4960  030D  1299               	bcf	25,5	;volatile
  4961  030E                     l2019:
  4962                           
  4963                           ;mcc_generated_files/eusart1.c: 167:     eusart1RxCount--;
  4964  030E  3001               	movlw	1
  4965  030F  0140               	movlb	0	; select bank0
  4966  0310  02D7               	subwf	_eusart1RxCount,f	;volatile
  4967  0311                     l2021:
  4968                           
  4969                           ;mcc_generated_files/eusart1.c: 168:     PIE3bits.RC1IE = 1;
  4970  0311  014E               	movlb	14	; select bank14
  4971  0312  1699               	bsf	25,5	;volatile
  4972  0313                     l2023:
  4973                           
  4974                           ;mcc_generated_files/eusart1.c: 170:     return readValue;
  4975  0313  0872               	movf	EUSART1_Read@readValue,w
  4976  0314                     l150:
  4977  0314  0008               	return
  4978  0315                     __end_of_EUSART1_Read:
  4979                           
  4980                           	psect	intentry
  4981  0004                     __pintentry:	
  4982 ;; *************** function _INTERRUPT_InterruptManager *****************
  4983 ;; Defined at:
  4984 ;;		line 52 in file "mcc_generated_files/interrupt_manager.c"
  4985 ;; Parameters:    Size  Location     Type
  4986 ;;		None
  4987 ;; Auto vars:     Size  Location     Type
  4988 ;;		None
  4989 ;; Return value:  Size  Location     Type
  4990 ;;                  1    wreg      void 
  4991 ;; Registers used:
  4992 ;;		wreg, fsr1l, fsr1h, status,2, status,0, pclath, cstack
  4993 ;; Tracked objects:
  4994 ;;		On entry : 0/0
  4995 ;;		On exit  : 0/0
  4996 ;;		Unchanged: 0/0
  4997 ;; Data sizes:     COMMON   BANK0   BANK1   BANK2   BANK3   BANK4   BANK5   BANK6   BANK7   BANK8   BANK9  BANK10  BANK1
      +1  BANK12
  4998 ;;      Params:         0       0       0       0       0       0       0       0       0       0       0       0       
      +0       0
  4999 ;;      Locals:         0       0       0       0       0       0       0       0       0       0       0       0       
      +0       0
  5000 ;;      Temps:          0       0       0       0       0       0       0       0       0       0       0       0       
      +0       0
  5001 ;;      Totals:         0       0       0       0       0       0       0       0       0       0       0       0       
      +0       0
  5002 ;;Total ram usage:        0 bytes
  5003 ;; Hardware stack levels used:    1
  5004 ;; Hardware stack levels required when called:    3
  5005 ;; This function calls:
  5006 ;;		Absolute function
  5007 ;;		_EUSART1_Receive_ISR
  5008 ;;		_EUSART1_Transmit_ISR
  5009 ;; This function is called by:
  5010 ;;		Interrupt level 1
  5011 ;; This function uses a non-reentrant model
  5012 ;;
  5013                           
  5014  0004                     _INTERRUPT_InterruptManager:
  5015                           
  5016                           ;incstack = 0
  5017  0004  147E               	bsf	int$flags,0	;set compiler interrupt flag (level 1)
  5018                           
  5019                           ; Regs used in _INTERRUPT_InterruptManager: [wreg+fsr1l+fsr1h+status,2+status,0+pclath+c
      +                          stack]
  5020  0005  3180               	pagesel	$
  5021  0006                     i1l1775:
  5022                           
  5023                           ;mcc_generated_files/interrupt_manager.c: 55:     if(INTCONbits.PEIE == 1)
  5024  0006  1F0B               	btfss	11,6	;volatile
  5025  0007  2809               	goto	u69_21
  5026  0008  280A               	goto	u69_20
  5027  0009                     u69_21:
  5028  0009  2829               	goto	i1l382
  5029  000A                     u69_20:
  5030  000A                     i1l1777:
  5031                           
  5032                           ;mcc_generated_files/interrupt_manager.c: 56:     {;mcc_generated_files/interrupt_manage
      +                          r.c: 57:         if(PIE3bits.TX1IE == 1 && PIR3bits.TX1IF == 1)
  5033  000A  014E               	movlb	14	; select bank14
  5034  000B  1E19               	btfss	25,4	;volatile
  5035  000C  280E               	goto	u70_21
  5036  000D  280F               	goto	u70_20
  5037  000E                     u70_21:
  5038  000E  281A               	goto	i1l377
  5039  000F                     u70_20:
  5040  000F                     i1l1779:
  5041  000F  1E0F               	btfss	15,4	;volatile
  5042  0010  2812               	goto	u71_21
  5043  0011  2813               	goto	u71_20
  5044  0012                     u71_21:
  5045  0012  281A               	goto	i1l377
  5046  0013                     u71_20:
  5047  0013                     i1l1781:
  5048                           
  5049                           ;mcc_generated_files/interrupt_manager.c: 58:         {;mcc_generated_files/interrupt_ma
      +                          nager.c: 59:             EUSART1_TxDefaultInterruptHandler();
  5050  0013  0140               	movlb	0	; select bank0
  5051  0014  085E               	movf	_EUSART1_TxDefaultInterruptHandler+1,w
  5052  0015  008A               	movwf	10
  5053  0016  085D               	movf	_EUSART1_TxDefaultInterruptHandler,w
  5054  0017  000A               	callw
  5055  0018  3180               	pagesel	$
  5056                           
  5057                           ;mcc_generated_files/interrupt_manager.c: 60:         }
  5058  0019  2829               	goto	i1l382
  5059  001A                     i1l377:	
  5060                           ;mcc_generated_files/interrupt_manager.c: 61:         else if(PIE3bits.RC1IE == 1 && PIR
      +                          3bits.RC1IF == 1)
  5061                           
  5062  001A  1E99               	btfss	25,5	;volatile
  5063  001B  281D               	goto	u72_21
  5064  001C  281E               	goto	u72_20
  5065  001D                     u72_21:
  5066  001D  2829               	goto	i1l378
  5067  001E                     u72_20:
  5068  001E                     i1l1783:
  5069  001E  1E8F               	btfss	15,5	;volatile
  5070  001F  2821               	goto	u73_21
  5071  0020  2822               	goto	u73_20
  5072  0021                     u73_21:
  5073  0021  2829               	goto	i1l378
  5074  0022                     u73_20:
  5075  0022                     i1l1785:
  5076                           
  5077                           ;mcc_generated_files/interrupt_manager.c: 62:         {;mcc_generated_files/interrupt_ma
      +                          nager.c: 63:             EUSART1_RxDefaultInterruptHandler();
  5078  0022  0140               	movlb	0	; select bank0
  5079  0023  085C               	movf	_EUSART1_RxDefaultInterruptHandler+1,w
  5080  0024  008A               	movwf	10
  5081  0025  085B               	movf	_EUSART1_RxDefaultInterruptHandler,w
  5082  0026  000A               	callw
  5083  0027  3180               	pagesel	$
  5084                           
  5085                           ;mcc_generated_files/interrupt_manager.c: 64:         }
  5086  0028  2829               	goto	i1l382
  5087  0029                     i1l378:
  5088  0029                     i1l382:	
  5089                           ;mcc_generated_files/interrupt_manager.c: 69:     }
  5090                           
  5091  0029  107E               	bcf	int$flags,0	;clear compiler interrupt flag (level 1)
  5092  002A  0009               	retfie
  5093  002B                     __end_of_INTERRUPT_InterruptManager:
  5094                           
  5095                           	psect	text26
  5096  0384                     __ptext26:	
  5097 ;; *************** function _EUSART1_Transmit_ISR *****************
  5098 ;; Defined at:
  5099 ;;		line 206 in file "mcc_generated_files/eusart1.c"
  5100 ;; Parameters:    Size  Location     Type
  5101 ;;		None
  5102 ;; Auto vars:     Size  Location     Type
  5103 ;;		None
  5104 ;; Return value:  Size  Location     Type
  5105 ;;                  1    wreg      void 
  5106 ;; Registers used:
  5107 ;;		wreg, fsr1l, fsr1h, status,2, status,0
  5108 ;; Tracked objects:
  5109 ;;		On entry : 0/0
  5110 ;;		On exit  : 0/0
  5111 ;;		Unchanged: 0/0
  5112 ;; Data sizes:     COMMON   BANK0   BANK1   BANK2   BANK3   BANK4   BANK5   BANK6   BANK7   BANK8   BANK9  BANK10  BANK1
      +1  BANK12
  5113 ;;      Params:         0       0       0       0       0       0       0       0       0       0       0       0       
      +0       0
  5114 ;;      Locals:         0       0       0       0       0       0       0       0       0       0       0       0       
      +0       0
  5115 ;;      Temps:          1       0       0       0       0       0       0       0       0       0       0       0       
      +0       0
  5116 ;;      Totals:         1       0       0       0       0       0       0       0       0       0       0       0       
      +0       0
  5117 ;;Total ram usage:        1 bytes
  5118 ;; Hardware stack levels used:    1
  5119 ;; This function calls:
  5120 ;;		Nothing
  5121 ;; This function is called by:
  5122 ;;		_EUSART1_Initialize
  5123 ;;		_INTERRUPT_InterruptManager
  5124 ;; This function uses a non-reentrant model
  5125 ;;
  5126                           
  5127                           
  5128                           ;psect for function _EUSART1_Transmit_ISR
  5129  0384                     _EUSART1_Transmit_ISR:
  5130  0384                     i1l1667:	
  5131                           ;incstack = 0
  5132                           ; Regs used in _EUSART1_Transmit_ISR: [wreg+fsr1l+fsr1h+status,2+status,0]
  5133                           
  5134                           
  5135                           ;mcc_generated_files/eusart1.c: 210:     if(sizeof(eusart1TxBuffer) > eusart1TxBufferRem
      +                          aining)
  5136  0384  3008               	movlw	8
  5137  0385  0140               	movlb	0	; select bank0
  5138  0386  025F               	subwf	_eusart1TxBufferRemaining,w	;volatile
  5139  0387  1803               	skipnc
  5140  0388  2B8A               	goto	u58_21
  5141  0389  2B8B               	goto	u58_20
  5142  038A                     u58_21:
  5143  038A  2BA3               	goto	i1l168
  5144  038B                     u58_20:
  5145  038B                     i1l1669:
  5146                           
  5147                           ;mcc_generated_files/eusart1.c: 211:     {;mcc_generated_files/eusart1.c: 212:         T
      +                          X1REG = eusart1TxBuffer[eusart1TxTail++];
  5148  038B  0859               	movf	_eusart1TxTail,w
  5149  038C  3EDC               	addlw	(low (_eusart1TxBuffer| 0))& (0+255)
  5150  038D  0086               	movwf	6
  5151  038E  0187               	clrf	7
  5152  038F  0801               	movf	1,w
  5153  0390  0142               	movlb	2	; select bank2
  5154  0391  009A               	movwf	26	;volatile
  5155  0392                     i1l1671:
  5156  0392  3001               	movlw	1
  5157  0393  00F0               	movwf	??_EUSART1_Transmit_ISR
  5158  0394  0870               	movf	??_EUSART1_Transmit_ISR,w
  5159  0395  0140               	movlb	0	; select bank0
  5160  0396  07D9               	addwf	_eusart1TxTail,f	;volatile
  5161  0397                     i1l1673:
  5162                           
  5163                           ;mcc_generated_files/eusart1.c: 213:         if(sizeof(eusart1TxBuffer) <= eusart1TxTail
      +                          )
  5164  0397  3008               	movlw	8
  5165  0398  0259               	subwf	_eusart1TxTail,w	;volatile
  5166  0399  1C03               	skipc
  5167  039A  2B9C               	goto	u59_21
  5168  039B  2B9D               	goto	u59_20
  5169  039C                     u59_21:
  5170  039C  2B9E               	goto	i1l1677
  5171  039D                     u59_20:
  5172  039D                     i1l1675:
  5173                           
  5174                           ;mcc_generated_files/eusart1.c: 214:         {;mcc_generated_files/eusart1.c: 215:      
      +                                 eusart1TxTail = 0;
  5175  039D  01D9               	clrf	_eusart1TxTail	;volatile
  5176  039E                     i1l1677:
  5177                           
  5178                           ;mcc_generated_files/eusart1.c: 217:         eusart1TxBufferRemaining++;
  5179  039E  3001               	movlw	1
  5180  039F  00F0               	movwf	??_EUSART1_Transmit_ISR
  5181  03A0  0870               	movf	??_EUSART1_Transmit_ISR,w
  5182  03A1  07DF               	addwf	_eusart1TxBufferRemaining,f	;volatile
  5183                           
  5184                           ;mcc_generated_files/eusart1.c: 218:     }
  5185  03A2  2BA5               	goto	i1l171
  5186  03A3                     i1l168:	
  5187                           ;mcc_generated_files/eusart1.c: 219:     else
  5188                           
  5189                           
  5190                           ;mcc_generated_files/eusart1.c: 220:     {;mcc_generated_files/eusart1.c: 221:         P
      +                          IE3bits.TX1IE = 0;
  5191  03A3  014E               	movlb	14	; select bank14
  5192  03A4  1219               	bcf	25,4	;volatile
  5193  03A5                     i1l171:
  5194  03A5  0008               	return
  5195  03A6                     __end_of_EUSART1_Transmit_ISR:
  5196                           
  5197                           	psect	text27
  5198  022C                     __ptext27:	
  5199 ;; *************** function _EUSART1_Receive_ISR *****************
  5200 ;; Defined at:
  5201 ;;		line 225 in file "mcc_generated_files/eusart1.c"
  5202 ;; Parameters:    Size  Location     Type
  5203 ;;		None
  5204 ;; Auto vars:     Size  Location     Type
  5205 ;;		None
  5206 ;; Return value:  Size  Location     Type
  5207 ;;                  1    wreg      void 
  5208 ;; Registers used:
  5209 ;;		wreg, fsr1l, fsr1h, status,2, status,0, pclath, cstack
  5210 ;; Tracked objects:
  5211 ;;		On entry : 0/0
  5212 ;;		On exit  : 0/0
  5213 ;;		Unchanged: 0/0
  5214 ;; Data sizes:     COMMON   BANK0   BANK1   BANK2   BANK3   BANK4   BANK5   BANK6   BANK7   BANK8   BANK9  BANK10  BANK1
      +1  BANK12
  5215 ;;      Params:         0       0       0       0       0       0       0       0       0       0       0       0       
      +0       0
  5216 ;;      Locals:         0       0       0       0       0       0       0       0       0       0       0       0       
      +0       0
  5217 ;;      Temps:          0       0       0       0       0       0       0       0       0       0       0       0       
      +0       0
  5218 ;;      Totals:         0       0       0       0       0       0       0       0       0       0       0       0       
      +0       0
  5219 ;;Total ram usage:        0 bytes
  5220 ;; Hardware stack levels used:    1
  5221 ;; Hardware stack levels required when called:    2
  5222 ;; This function calls:
  5223 ;;		Absolute function
  5224 ;;		_EUSART1_DefaultErrorHandler
  5225 ;;		_EUSART1_DefaultFramingErrorHandler
  5226 ;;		_EUSART1_DefaultOverrunErrorHandler
  5227 ;;		_EUSART1_RxDataHandler
  5228 ;; This function is called by:
  5229 ;;		_EUSART1_Initialize
  5230 ;;		_INTERRUPT_InterruptManager
  5231 ;; This function uses a non-reentrant model
  5232 ;;
  5233                           
  5234                           
  5235                           ;psect for function _EUSART1_Receive_ISR
  5236  022C                     _EUSART1_Receive_ISR:
  5237  022C                     i1l1679:	
  5238                           ;incstack = 0
  5239                           ; Regs used in _EUSART1_Receive_ISR: [wreg+fsr1l+fsr1h+status,2+status,0+pclath+cstack]
  5240                           
  5241                           
  5242                           ;mcc_generated_files/eusart1.c: 228:     eusart1RxStatusBuffer[eusart1RxHead].status = 0
      +                          ;
  5243  022C  087C               	movf	_eusart1RxHead,w	;volatile
  5244  022D  3E45               	addlw	(low (_eusart1RxStatusBuffer| 0))& (0+255)
  5245  022E  0086               	movwf	6
  5246  022F  0187               	clrf	7
  5247  0230  0181               	clrf	1
  5248  0231                     i1l1681:
  5249                           
  5250                           ;mcc_generated_files/eusart1.c: 230:     if(RC1STAbits.FERR){
  5251  0231  0142               	movlb	2	; select bank2
  5252  0232  1D1D               	btfss	29,2	;volatile
  5253  0233  2A35               	goto	u60_21
  5254  0234  2A36               	goto	u60_20
  5255  0235                     u60_21:
  5256  0235  2A41               	goto	i1l1687
  5257  0236                     u60_20:
  5258  0236                     i1l1683:
  5259                           
  5260                           ;mcc_generated_files/eusart1.c: 231:         eusart1RxStatusBuffer[eusart1RxHead].ferr =
      +                           1;
  5261  0236  087C               	movf	_eusart1RxHead,w	;volatile
  5262  0237  3E45               	addlw	(low (_eusart1RxStatusBuffer| 0))& (0+255)
  5263  0238  0086               	movwf	6
  5264  0239  0187               	clrf	7
  5265  023A  1481               	bsf	1,1
  5266  023B                     i1l1685:
  5267                           
  5268                           ;mcc_generated_files/eusart1.c: 232:         EUSART1_FramingErrorHandler();
  5269  023B  0141               	movlb	1	; select bank1
  5270  023C  086F               	movf	(_EUSART1_FramingErrorHandler+1)^(0+128),w
  5271  023D  008A               	movwf	10
  5272  023E  086E               	movf	_EUSART1_FramingErrorHandler^(0+128),w
  5273  023F  000A               	callw
  5274  0240  3182               	pagesel	$
  5275  0241                     i1l1687:
  5276                           
  5277                           ;mcc_generated_files/eusart1.c: 235:     if(RC1STAbits.OERR){
  5278  0241  0142               	movlb	2	; select bank2
  5279  0242  1C9D               	btfss	29,1	;volatile
  5280  0243  2A45               	goto	u61_21
  5281  0244  2A46               	goto	u61_20
  5282  0245                     u61_21:
  5283  0245  2A51               	goto	i1l1693
  5284  0246                     u61_20:
  5285  0246                     i1l1689:
  5286                           
  5287                           ;mcc_generated_files/eusart1.c: 236:         eusart1RxStatusBuffer[eusart1RxHead].oerr =
      +                           1;
  5288  0246  087C               	movf	_eusart1RxHead,w	;volatile
  5289  0247  3E45               	addlw	(low (_eusart1RxStatusBuffer| 0))& (0+255)
  5290  0248  0086               	movwf	6
  5291  0249  0187               	clrf	7
  5292  024A  1501               	bsf	1,2
  5293  024B                     i1l1691:
  5294                           
  5295                           ;mcc_generated_files/eusart1.c: 237:         EUSART1_OverrunErrorHandler();
  5296  024B  0141               	movlb	1	; select bank1
  5297  024C  086D               	movf	(_EUSART1_OverrunErrorHandler+1)^(0+128),w
  5298  024D  008A               	movwf	10
  5299  024E  086C               	movf	_EUSART1_OverrunErrorHandler^(0+128),w
  5300  024F  000A               	callw
  5301  0250  3182               	pagesel	$
  5302  0251                     i1l1693:
  5303                           
  5304                           ;mcc_generated_files/eusart1.c: 240:     if(eusart1RxStatusBuffer[eusart1RxHead].status)
      +                          {
  5305  0251  087C               	movf	_eusart1RxHead,w	;volatile
  5306  0252  3E45               	addlw	(low (_eusart1RxStatusBuffer| 0))& (0+255)
  5307  0253  0086               	movwf	6
  5308  0254  0187               	clrf	7
  5309  0255  0801               	movf	1,w
  5310  0256  1903               	btfsc	3,2
  5311  0257  2A59               	goto	u62_21
  5312  0258  2A5A               	goto	u62_20
  5313  0259                     u62_21:
  5314  0259  2A61               	goto	i1l1697
  5315  025A                     u62_20:
  5316  025A                     i1l1695:
  5317                           
  5318                           ;mcc_generated_files/eusart1.c: 241:         EUSART1_ErrorHandler();
  5319  025A  0141               	movlb	1	; select bank1
  5320  025B  086B               	movf	(_EUSART1_ErrorHandler+1)^(0+128),w
  5321  025C  008A               	movwf	10
  5322  025D  086A               	movf	_EUSART1_ErrorHandler^(0+128),w
  5323  025E  000A               	callw
  5324  025F  3182               	pagesel	$
  5325                           
  5326                           ;mcc_generated_files/eusart1.c: 242:     } else {
  5327  0260  2A64               	goto	i1l178
  5328  0261                     i1l1697:
  5329                           
  5330                           ;mcc_generated_files/eusart1.c: 243:         EUSART1_RxDataHandler();
  5331  0261  3183  23A6  3182   	fcall	_EUSART1_RxDataHandler
  5332  0264                     i1l178:
  5333  0264  0008               	return
  5334  0265                     __end_of_EUSART1_Receive_ISR:
  5335                           
  5336                           	psect	text28
  5337  0449                     __ptext28:	
  5338 ;; *************** function _EUSART1_DefaultOverrunErrorHandler *****************
  5339 ;; Defined at:
  5340 ;;		line 261 in file "mcc_generated_files/eusart1.c"
  5341 ;; Parameters:    Size  Location     Type
  5342 ;;		None
  5343 ;; Auto vars:     Size  Location     Type
  5344 ;;		None
  5345 ;; Return value:  Size  Location     Type
  5346 ;;                  1    wreg      void 
  5347 ;; Registers used:
  5348 ;;		None
  5349 ;; Tracked objects:
  5350 ;;		On entry : 0/0
  5351 ;;		On exit  : 0/0
  5352 ;;		Unchanged: 0/0
  5353 ;; Data sizes:     COMMON   BANK0   BANK1   BANK2   BANK3   BANK4   BANK5   BANK6   BANK7   BANK8   BANK9  BANK10  BANK1
      +1  BANK12
  5354 ;;      Params:         0       0       0       0       0       0       0       0       0       0       0       0       
      +0       0
  5355 ;;      Locals:         0       0       0       0       0       0       0       0       0       0       0       0       
      +0       0
  5356 ;;      Temps:          0       0       0       0       0       0       0       0       0       0       0       0       
      +0       0
  5357 ;;      Totals:         0       0       0       0       0       0       0       0       0       0       0       0       
      +0       0
  5358 ;;Total ram usage:        0 bytes
  5359 ;; Hardware stack levels used:    1
  5360 ;; This function calls:
  5361 ;;		Nothing
  5362 ;; This function is called by:
  5363 ;;		_EUSART1_Initialize
  5364 ;;		_EUSART1_Receive_ISR
  5365 ;; This function uses a non-reentrant model
  5366 ;;
  5367                           
  5368                           
  5369                           ;psect for function _EUSART1_DefaultOverrunErrorHandler
  5370  0449                     _EUSART1_DefaultOverrunErrorHandler:
  5371  0449                     i1l1605:	
  5372                           ;incstack = 0
  5373                           ; Regs used in _EUSART1_DefaultOverrunErrorHandler: []
  5374                           
  5375                           
  5376                           ;mcc_generated_files/eusart1.c: 264:     RC1STAbits.CREN = 0;
  5377  0449  0142               	movlb	2	; select bank2
  5378  044A  121D               	bcf	29,4	;volatile
  5379                           
  5380                           ;mcc_generated_files/eusart1.c: 265:     RC1STAbits.CREN = 1;
  5381  044B  161D               	bsf	29,4	;volatile
  5382  044C                     i1l188:
  5383  044C  0008               	return
  5384  044D                     __end_of_EUSART1_DefaultOverrunErrorHandler:
  5385                           
  5386                           	psect	text29
  5387  0451                     __ptext29:	
  5388 ;; *************** function _EUSART1_DefaultFramingErrorHandler *****************
  5389 ;; Defined at:
  5390 ;;		line 259 in file "mcc_generated_files/eusart1.c"
  5391 ;; Parameters:    Size  Location     Type
  5392 ;;		None
  5393 ;; Auto vars:     Size  Location     Type
  5394 ;;		None
  5395 ;; Return value:  Size  Location     Type
  5396 ;;                  1    wreg      void 
  5397 ;; Registers used:
  5398 ;;		None
  5399 ;; Tracked objects:
  5400 ;;		On entry : 0/0
  5401 ;;		On exit  : 0/0
  5402 ;;		Unchanged: 0/0
  5403 ;; Data sizes:     COMMON   BANK0   BANK1   BANK2   BANK3   BANK4   BANK5   BANK6   BANK7   BANK8   BANK9  BANK10  BANK1
      +1  BANK12
  5404 ;;      Params:         0       0       0       0       0       0       0       0       0       0       0       0       
      +0       0
  5405 ;;      Locals:         0       0       0       0       0       0       0       0       0       0       0       0       
      +0       0
  5406 ;;      Temps:          0       0       0       0       0       0       0       0       0       0       0       0       
      +0       0
  5407 ;;      Totals:         0       0       0       0       0       0       0       0       0       0       0       0       
      +0       0
  5408 ;;Total ram usage:        0 bytes
  5409 ;; Hardware stack levels used:    1
  5410 ;; This function calls:
  5411 ;;		Nothing
  5412 ;; This function is called by:
  5413 ;;		_EUSART1_Initialize
  5414 ;;		_EUSART1_Receive_ISR
  5415 ;; This function uses a non-reentrant model
  5416 ;;
  5417                           
  5418                           
  5419                           ;psect for function _EUSART1_DefaultFramingErrorHandler
  5420  0451                     _EUSART1_DefaultFramingErrorHandler:
  5421  0451                     i1l185:	
  5422                           ;incstack = 0
  5423                           ; Regs used in _EUSART1_DefaultFramingErrorHandler: []
  5424                           
  5425  0451  0008               	return
  5426  0452                     __end_of_EUSART1_DefaultFramingErrorHandler:
  5427                           
  5428                           	psect	text30
  5429  044D                     __ptext30:	
  5430 ;; *************** function _EUSART1_DefaultErrorHandler *****************
  5431 ;; Defined at:
  5432 ;;		line 269 in file "mcc_generated_files/eusart1.c"
  5433 ;; Parameters:    Size  Location     Type
  5434 ;;		None
  5435 ;; Auto vars:     Size  Location     Type
  5436 ;;		None
  5437 ;; Return value:  Size  Location     Type
  5438 ;;                  1    wreg      void 
  5439 ;; Registers used:
  5440 ;;		wreg, fsr1l, fsr1h, status,2, status,0, pclath, cstack
  5441 ;; Tracked objects:
  5442 ;;		On entry : 0/0
  5443 ;;		On exit  : 0/0
  5444 ;;		Unchanged: 0/0
  5445 ;; Data sizes:     COMMON   BANK0   BANK1   BANK2   BANK3   BANK4   BANK5   BANK6   BANK7   BANK8   BANK9  BANK10  BANK1
      +1  BANK12
  5446 ;;      Params:         0       0       0       0       0       0       0       0       0       0       0       0       
      +0       0
  5447 ;;      Locals:         0       0       0       0       0       0       0       0       0       0       0       0       
      +0       0
  5448 ;;      Temps:          0       0       0       0       0       0       0       0       0       0       0       0       
      +0       0
  5449 ;;      Totals:         0       0       0       0       0       0       0       0       0       0       0       0       
      +0       0
  5450 ;;Total ram usage:        0 bytes
  5451 ;; Hardware stack levels used:    1
  5452 ;; Hardware stack levels required when called:    1
  5453 ;; This function calls:
  5454 ;;		_EUSART1_RxDataHandler
  5455 ;; This function is called by:
  5456 ;;		_EUSART1_Initialize
  5457 ;;		_EUSART1_Receive_ISR
  5458 ;; This function uses a non-reentrant model
  5459 ;;
  5460                           
  5461                           
  5462                           ;psect for function _EUSART1_DefaultErrorHandler
  5463  044D                     _EUSART1_DefaultErrorHandler:
  5464  044D                     i1l1607:	
  5465                           ;incstack = 0
  5466                           ; Regs used in _EUSART1_DefaultErrorHandler: [wreg+fsr1l+fsr1h+status,2+status,0+pclath+
      +                          cstack]
  5467                           
  5468                           
  5469                           ;mcc_generated_files/eusart1.c: 270:     EUSART1_RxDataHandler();
  5470  044D  3183  23A6  3184   	fcall	_EUSART1_RxDataHandler
  5471  0450                     i1l191:
  5472  0450  0008               	return
  5473  0451                     __end_of_EUSART1_DefaultErrorHandler:
  5474                           
  5475                           	psect	text31
  5476  03A6                     __ptext31:	
  5477 ;; *************** function _EUSART1_RxDataHandler *****************
  5478 ;; Defined at:
  5479 ;;		line 249 in file "mcc_generated_files/eusart1.c"
  5480 ;; Parameters:    Size  Location     Type
  5481 ;;		None
  5482 ;; Auto vars:     Size  Location     Type
  5483 ;;		None
  5484 ;; Return value:  Size  Location     Type
  5485 ;;                  1    wreg      void 
  5486 ;; Registers used:
  5487 ;;		wreg, fsr1l, fsr1h, status,2, status,0
  5488 ;; Tracked objects:
  5489 ;;		On entry : 0/0
  5490 ;;		On exit  : 0/0
  5491 ;;		Unchanged: 0/0
  5492 ;; Data sizes:     COMMON   BANK0   BANK1   BANK2   BANK3   BANK4   BANK5   BANK6   BANK7   BANK8   BANK9  BANK10  BANK1
      +1  BANK12
  5493 ;;      Params:         0       0       0       0       0       0       0       0       0       0       0       0       
      +0       0
  5494 ;;      Locals:         0       0       0       0       0       0       0       0       0       0       0       0       
      +0       0
  5495 ;;      Temps:          1       0       0       0       0       0       0       0       0       0       0       0       
      +0       0
  5496 ;;      Totals:         1       0       0       0       0       0       0       0       0       0       0       0       
      +0       0
  5497 ;;Total ram usage:        1 bytes
  5498 ;; Hardware stack levels used:    1
  5499 ;; This function calls:
  5500 ;;		Nothing
  5501 ;; This function is called by:
  5502 ;;		_EUSART1_Receive_ISR
  5503 ;;		_EUSART1_DefaultErrorHandler
  5504 ;; This function uses a non-reentrant model
  5505 ;;
  5506                           
  5507                           
  5508                           ;psect for function _EUSART1_RxDataHandler
  5509  03A6                     _EUSART1_RxDataHandler:
  5510  03A6                     i1l1485:	
  5511                           ;incstack = 0
  5512                           ; Regs used in _EUSART1_RxDataHandler: [wreg+fsr1l+fsr1h+status,2+status,0]
  5513                           
  5514                           
  5515                           ;mcc_generated_files/eusart1.c: 251:     eusart1RxBuffer[eusart1RxHead++] = RC1REG;
  5516  03A6  0142               	movlb	2	; select bank2
  5517  03A7  0819               	movf	25,w	;volatile
  5518  03A8  00F0               	movwf	??_EUSART1_RxDataHandler
  5519  03A9  087C               	movf	_eusart1RxHead,w
  5520  03AA  3ED4               	addlw	(low (_eusart1RxBuffer| 0))& (0+255)
  5521  03AB  0086               	movwf	6
  5522  03AC  0187               	clrf	7
  5523  03AD  0870               	movf	??_EUSART1_RxDataHandler,w
  5524  03AE  0081               	movwf	1
  5525  03AF                     i1l1487:
  5526  03AF  3001               	movlw	1
  5527  03B0  00F0               	movwf	??_EUSART1_RxDataHandler
  5528  03B1  0870               	movf	??_EUSART1_RxDataHandler,w
  5529  03B2  07FC               	addwf	_eusart1RxHead,f	;volatile
  5530  03B3                     i1l1489:
  5531                           
  5532                           ;mcc_generated_files/eusart1.c: 252:     if(sizeof(eusart1RxBuffer) <= eusart1RxHead)
  5533  03B3  3008               	movlw	8
  5534  03B4  027C               	subwf	_eusart1RxHead,w	;volatile
  5535  03B5  1C03               	skipc
  5536  03B6  2BB8               	goto	u51_21
  5537  03B7  2BB9               	goto	u51_20
  5538  03B8                     u51_21:
  5539  03B8  2BBA               	goto	i1l1493
  5540  03B9                     u51_20:
  5541  03B9                     i1l1491:
  5542                           
  5543                           ;mcc_generated_files/eusart1.c: 253:     {;mcc_generated_files/eusart1.c: 254:         e
      +                          usart1RxHead = 0;
  5544  03B9  01FC               	clrf	_eusart1RxHead	;volatile
  5545  03BA                     i1l1493:
  5546                           
  5547                           ;mcc_generated_files/eusart1.c: 256:     eusart1RxCount++;
  5548  03BA  3001               	movlw	1
  5549  03BB  00F0               	movwf	??_EUSART1_RxDataHandler
  5550  03BC  0870               	movf	??_EUSART1_RxDataHandler,w
  5551  03BD  0140               	movlb	0	; select bank0
  5552  03BE  07D7               	addwf	_eusart1RxCount,f	;volatile
  5553  03BF                     i1l182:
  5554  03BF  0008               	return
  5555  03C0                     __end_of_EUSART1_RxDataHandler:
  5556  007E                     btemp	set	126	;btemp
  5557  007E                     int$flags	set	126
  5558  007E                     wtemp0	set	126
  5559                           
  5560                           	psect	config
  5561                           
  5562                           ;Config register CONFIG1 @ 0x8007
  5563                           ;	External Oscillator mode selection bits
  5564                           ;	FEXTOSC = OFF, Oscillator not enabled
  5565                           ;	Power-up default value for COSC bits
  5566                           ;	RSTOSC = HFINT1, HFINTOSC (1MHz)
  5567                           ;	Clock Out Enable bit
  5568                           ;	CLKOUTEN = OFF, CLKOUT function is disabled; i/o or oscillator function on OSC2
  5569                           ;	Clock Switch Enable bit
  5570                           ;	CSWEN = ON, Writing to NOSC and NDIV is allowed
  5571                           ;	Fail-Safe Clock Monitor Enable bit
  5572                           ;	FCMEN = ON, FSCM timer enabled
  5573  8007                     	org	32775
  5574  8007  3FEC               	dw	16364
  5575                           
  5576                           ;Config register CONFIG2 @ 0x8008
  5577                           ;	Master Clear Enable bit
  5578                           ;	MCLRE = ON, MCLR pin is Master Clear function
  5579                           ;	Power-up Timer Enable bit
  5580                           ;	PWRTE = OFF, PWRT disabled
  5581                           ;	Low-Power BOR enable bit
  5582                           ;	LPBOREN = OFF, ULPBOR disabled
  5583                           ;	Brown-out reset enable bits
  5584                           ;	BOREN = ON, Brown-out Reset Enabled, SBOREN bit is ignored
  5585                           ;	Brown-out Reset Voltage Selection
  5586                           ;	BORV = LO, Brown-out Reset Voltage (VBOR) set to 1.9V on LF, and 2.45V on F Devices
  5587                           ;	Zero-cross detect disable
  5588                           ;	ZCD = OFF, Zero-cross detect circuit is disabled at POR.
  5589                           ;	Peripheral Pin Select one-way control
  5590                           ;	PPS1WAY = ON, The PPSLOCK bit can be cleared and set only once in software
  5591                           ;	Stack Overflow/Underflow Reset Enable bit
  5592                           ;	STVREN = ON, Stack Overflow or Underflow will cause a reset
  5593  8008                     	org	32776
  5594  8008  3FFF               	dw	16383
  5595                           
  5596                           ;Config register CONFIG3 @ 0x8009
  5597                           ;	WDT Period Select bits
  5598                           ;	WDTCPS = WDTCPS_31, Divider ratio 1:65536; software control of WDTPS
  5599                           ;	WDT operating mode
  5600                           ;	WDTE = OFF, WDT Disabled, SWDTEN is ignored
  5601                           ;	WDT Window Select bits
  5602                           ;	WDTCWS = WDTCWS_7, window always open (100%); software control; keyed access not requi
      +                          red
  5603                           ;	WDT input clock selector
  5604                           ;	WDTCCS = SC, Software Control
  5605  8009                     	org	32777
  5606  8009  3F9F               	dw	16287
  5607                           
  5608                           ;Config register CONFIG4 @ 0x800A
  5609                           ;	Boot Block Size Selection bits
  5610                           ;	BBSIZE = BB512, 512 words boot block size
  5611                           ;	Boot Block Enable bit
  5612                           ;	BBEN = OFF, Boot Block disabled
  5613                           ;	SAF Enable bit
  5614                           ;	SAFEN = OFF, SAF disabled
  5615                           ;	Application Block Write Protection bit
  5616                           ;	WRTAPP = OFF, Application Block not write protected
  5617                           ;	Boot Block Write Protection bit
  5618                           ;	WRTB = OFF, Boot Block not write protected
  5619                           ;	Configuration Register Write Protection bit
  5620                           ;	WRTC = OFF, Configuration Register not write protected
  5621                           ;	Storage Area Flash Write Protection bit
  5622                           ;	WRTSAF = OFF, SAF not write protected
  5623                           ;	Low Voltage Programming Enable bit
  5624                           ;	LVP = ON, Low Voltage programming enabled. MCLR/Vpp pin function is MCLR.
  5625  800A                     	org	32778
  5626  800A  3FFF               	dw	16383
  5627                           
  5628                           ;Config register CONFIG5 @ 0x800B
  5629                           ;	UserNVM Program memory code protection bit
  5630                           ;	CP = OFF, UserNVM code protection disabled
  5631  800B                     	org	32779
  5632  800B  3FFF               	dw	16383

Data Sizes:
    Strings     49
    Constant    0
    Data        0
    BSS         91
    Persistent  49
    Stack       0

Auto Spaces:
    Space          Size  Autos    Used
    COMMON           14     12      13
    BANK0            80     37      64
    BANK1            80      0      80
    BANK2            80     17      17
    BANK3            80      0       0
    BANK4            80      0       0
    BANK5            80      0       0
    BANK6            80      0       0
    BANK7            80      0       0
    BANK8            80      0       0
    BANK9            80      0       0
    BANK10           80      0       0
    BANK11           80      0       0
    BANK12           48      0       0

Pointer List with Targets:

    strchr@s	PTR const unsigned char  size(1) Largest target is 10
		 -> main@Buffer(BANK2[10]), 

    S871_IO_FILE$buffer	PTR unsigned char  size(1) Largest target is 0

    fputc@fp.buffer	PTR unsigned char  size(1) Largest target is 0

    fputc@fp	PTR struct _IO_FILE size(1) Largest target is 0
		 -> NULL(NULL[0]), 

    vfprintf@ap	PTR PTR void  size(1) Largest target is 1
		 -> printf@ap(BANK0[1]), 

    vfprintf@fp	PTR struct _IO_FILE size(1) Largest target is 0
		 -> NULL(NULL[0]), 

    vfprintf@fmt	PTR const unsigned char  size(2) Largest target is 49
		 -> STR_1(CODE[49]), 

    vfprintf@cfmt	PTR unsigned char  size(2) Largest target is 49
		 -> STR_1(CODE[49]), 

    vfpfcnvrt@fp	PTR struct _IO_FILE size(1) Largest target is 0
		 -> NULL(NULL[0]), 

    vfpfcnvrt@ap	PTR PTR void  size(1) Largest target is 1
		 -> printf@ap(BANK0[1]), 

    vfpfcnvrt@fmt	PTR PTR unsigned char  size(1) Largest target is 2
		 -> vfprintf@cfmt(BANK0[2]), 

    ctoa@fp	PTR struct _IO_FILE size(1) Largest target is 0
		 -> NULL(NULL[0]), 

    printf@fmt	PTR const unsigned char  size(2) Largest target is 49
		 -> STR_1(CODE[49]), 

    printf@ap	PTR void [1] size(1) Largest target is 2
		 -> ?_printf(BANK0[2]), 

    sp__strchr	PTR unsigned char  size(1) Largest target is 10
		 -> NULL(NULL[0]), main@Buffer(BANK2[10]), 

    parsing@Buffer	PTR unsigned char  size(1) Largest target is 10
		 -> main@Buffer(BANK2[10]), 

    EUSART2_SetErrorHandler@interruptHandler	PTR FTN()void  size(2) Largest target is 1
		 -> EUSART2_DefaultErrorHandler(), 

    EUSART2_ErrorHandler	PTR FTN()void  size(2) Largest target is 1
		 -> Absolute function(), EUSART2_DefaultErrorHandler(), 

    EUSART2_SetOverrunErrorHandler@interruptHandler	PTR FTN()void  size(2) Largest target is 1
		 -> EUSART2_DefaultOverrunErrorHandler(), 

    EUSART2_OverrunErrorHandler	PTR FTN()void  size(2) Largest target is 1
		 -> Absolute function(), EUSART2_DefaultOverrunErrorHandler(), 

    EUSART2_SetFramingErrorHandler@interruptHandler	PTR FTN()void  size(2) Largest target is 1
		 -> EUSART2_DefaultFramingErrorHandler(), 

    EUSART2_FramingErrorHandler	PTR FTN()void  size(2) Largest target is 1
		 -> Absolute function(), EUSART2_DefaultFramingErrorHandler(), 

    EUSART1_SetRxInterruptHandler@interruptHandler	PTR FTN()void  size(2) Largest target is 1
		 -> EUSART1_Receive_ISR(), 

    EUSART1_RxDefaultInterruptHandler	PTR FTN()void  size(2) Largest target is 1
		 -> Absolute function(), EUSART1_Receive_ISR(), 

    EUSART1_SetTxInterruptHandler@interruptHandler	PTR FTN()void  size(2) Largest target is 1
		 -> EUSART1_Transmit_ISR(), 

    EUSART1_TxDefaultInterruptHandler	PTR FTN()void  size(2) Largest target is 1
		 -> Absolute function(), EUSART1_Transmit_ISR(), 

    EUSART1_SetErrorHandler@interruptHandler	PTR FTN()void  size(2) Largest target is 1
		 -> EUSART1_DefaultErrorHandler(), 

    EUSART1_SetOverrunErrorHandler@interruptHandler	PTR FTN()void  size(2) Largest target is 1
		 -> EUSART1_DefaultOverrunErrorHandler(), 

    EUSART1_SetFramingErrorHandler@interruptHandler	PTR FTN()void  size(2) Largest target is 1
		 -> EUSART1_DefaultFramingErrorHandler(), 

    EUSART1_ErrorHandler	PTR FTN()void  size(2) Largest target is 1
		 -> Absolute function(), EUSART1_DefaultErrorHandler(), 

    EUSART1_OverrunErrorHandler	PTR FTN()void  size(2) Largest target is 1
		 -> Absolute function(), EUSART1_DefaultOverrunErrorHandler(), 

    EUSART1_FramingErrorHandler	PTR FTN()void  size(2) Largest target is 1
		 -> Absolute function(), EUSART1_DefaultFramingErrorHandler(), 


Critical Paths under _main in COMMON

    _vfpfcnvrt->_fputc
    _ctoa->_fputc
    _fputc->_putch
    _putch->_EUSART1_Write
    _SYSTEM_Initialize->_EUSART1_Initialize
    _EUSART2_Initialize->_EUSART2_SetErrorHandler
    _EUSART2_Initialize->_EUSART2_SetFramingErrorHandler
    _EUSART2_Initialize->_EUSART2_SetOverrunErrorHandler
    _EUSART1_Initialize->_EUSART1_SetErrorHandler
    _EUSART1_Initialize->_EUSART1_SetFramingErrorHandler
    _EUSART1_Initialize->_EUSART1_SetOverrunErrorHandler
    _EUSART1_Initialize->_EUSART1_SetRxInterruptHandler
    _EUSART1_Initialize->_EUSART1_SetTxInterruptHandler

Critical Paths under _INTERRUPT_InterruptManager in COMMON

    _INTERRUPT_InterruptManager->_EUSART1_Transmit_ISR
    _EUSART1_Receive_ISR->_EUSART1_RxDataHandler
    _EUSART1_DefaultErrorHandler->_EUSART1_RxDataHandler

Critical Paths under _main in BANK0

    _main->_printf
    _printf->_vfprintf
    _vfprintf->_vfpfcnvrt
    _vfpfcnvrt->_ctoa

Critical Paths under _INTERRUPT_InterruptManager in BANK0

    None.

Critical Paths under _main in BANK1

    None.

Critical Paths under _INTERRUPT_InterruptManager in BANK1

    None.

Critical Paths under _main in BANK2

    None.

Critical Paths under _INTERRUPT_InterruptManager in BANK2

    None.

Critical Paths under _main in BANK3

    None.

Critical Paths under _INTERRUPT_InterruptManager in BANK3

    None.

Critical Paths under _main in BANK4

    None.

Critical Paths under _INTERRUPT_InterruptManager in BANK4

    None.

Critical Paths under _main in BANK5

    None.

Critical Paths under _INTERRUPT_InterruptManager in BANK5

    None.

Critical Paths under _main in BANK6

    None.

Critical Paths under _INTERRUPT_InterruptManager in BANK6

    None.

Critical Paths under _main in BANK7

    None.

Critical Paths under _INTERRUPT_InterruptManager in BANK7

    None.

Critical Paths under _main in BANK8

    None.

Critical Paths under _INTERRUPT_InterruptManager in BANK8

    None.

Critical Paths under _main in BANK9

    None.

Critical Paths under _INTERRUPT_InterruptManager in BANK9

    None.

Critical Paths under _main in BANK10

    None.

Critical Paths under _INTERRUPT_InterruptManager in BANK10

    None.

Critical Paths under _main in BANK11

    None.

Critical Paths under _INTERRUPT_InterruptManager in BANK11

    None.

Critical Paths under _main in BANK12

    None.

Critical Paths under _INTERRUPT_InterruptManager in BANK12

    None.

Call Graph Tables:

 ---------------------------------------------------------------------------------
 (Depth) Function   	        Calls       Base Space   Used Autos Params    Refs
 ---------------------------------------------------------------------------------
 (0) _main                                                19    19      0    6720
                                             35 BANK0      2     2      0
                                              0 BANK2     17    17      0
                       _EUSART1_Read
                  _SYSTEM_Initialize
                            _parsing
                             _printf
                             _strchr
 ---------------------------------------------------------------------------------
 (1) _strchr                                               3     1      2     376
                                              1 COMMON     3     1      2
 ---------------------------------------------------------------------------------
 (1) _printf                                               8     4      4    4711
                                             27 BANK0      8     4      4
                             _strchr (ARG)
                           _vfprintf
 ---------------------------------------------------------------------------------
 (2) _vfprintf                                             8     5      3    4540
                                             19 BANK0      8     5      3
                          _vfpfcnvrt
 ---------------------------------------------------------------------------------
 (3) _vfpfcnvrt                                           40    38      2    4105
                                             10 BANK0      9     7      2
                               _ctoa
                              _fputc
 ---------------------------------------------------------------------------------
 (4) _ctoa                                                10     8      2    1936
                                              0 BANK0     10     8      2
                              _fputc
 ---------------------------------------------------------------------------------
 (4) _fputc                                                8     5      3    1497
                                              4 COMMON     8     5      3
                              _putch
 ---------------------------------------------------------------------------------
 (5) _putch                                                1     1      0      93
                                              3 COMMON     1     1      0
                      _EUSART1_Write
 ---------------------------------------------------------------------------------
 (6) _EUSART1_Write                                        2     2      0      62
                                              1 COMMON     2     2      0
 ---------------------------------------------------------------------------------
 (1) _parsing                                              8     3      5     437
                                              1 COMMON     7     2      5
 ---------------------------------------------------------------------------------
 (1) _SYSTEM_Initialize                                    0     0      0     968
                 _EUSART1_Initialize
                 _EUSART2_Initialize
              _OSCILLATOR_Initialize
             _PIN_MANAGER_Initialize
                     _PMD_Initialize
 ---------------------------------------------------------------------------------
 (2) _PMD_Initialize                                       0     0      0       0
 ---------------------------------------------------------------------------------
 (2) _PIN_MANAGER_Initialize                               0     0      0       0
 ---------------------------------------------------------------------------------
 (2) _OSCILLATOR_Initialize                                0     0      0       0
 ---------------------------------------------------------------------------------
 (2) _EUSART2_Initialize                                   0     0      0     363
            _EUSART2_SetErrorHandler
     _EUSART2_SetFramingErrorHandler
     _EUSART2_SetOverrunErrorHandler
 ---------------------------------------------------------------------------------
 (3) _EUSART2_SetOverrunErrorHandler                       2     0      2     121
                                              1 COMMON     2     0      2
 ---------------------------------------------------------------------------------
 (3) _EUSART2_SetFramingErrorHandler                       2     0      2     121
                                              1 COMMON     2     0      2
 ---------------------------------------------------------------------------------
 (3) _EUSART2_SetErrorHandler                              2     0      2     121
                                              1 COMMON     2     0      2
 ---------------------------------------------------------------------------------
 (2) _EUSART1_Initialize                                   1     1      0     605
                                              3 COMMON     1     1      0
            _EUSART1_SetErrorHandler
     _EUSART1_SetFramingErrorHandler
     _EUSART1_SetOverrunErrorHandler
      _EUSART1_SetRxInterruptHandler
      _EUSART1_SetTxInterruptHandler
 ---------------------------------------------------------------------------------
 (3) _EUSART1_SetTxInterruptHandler                        2     0      2     121
                                              1 COMMON     2     0      2
 ---------------------------------------------------------------------------------
 (3) _EUSART1_SetRxInterruptHandler                        2     0      2     121
                                              1 COMMON     2     0      2
 ---------------------------------------------------------------------------------
 (3) _EUSART1_SetOverrunErrorHandler                       2     0      2     121
                                              1 COMMON     2     0      2
 ---------------------------------------------------------------------------------
 (3) _EUSART1_SetFramingErrorHandler                       2     0      2     121
                                              1 COMMON     2     0      2
 ---------------------------------------------------------------------------------
 (3) _EUSART1_SetErrorHandler                              2     0      2     121
                                              1 COMMON     2     0      2
 ---------------------------------------------------------------------------------
 (1) _EUSART1_Read                                         2     2      0      37
                                              1 COMMON     2     2      0
 ---------------------------------------------------------------------------------
 Estimated maximum stack depth 6
 ---------------------------------------------------------------------------------
 (Depth) Function   	        Calls       Base Space   Used Autos Params    Refs
 ---------------------------------------------------------------------------------
 (8) _INTERRUPT_InterruptManager                           0     0      0       0
                   Absolute function *
                _EUSART1_Receive_ISR *
               _EUSART1_Transmit_ISR *
 ---------------------------------------------------------------------------------
 (9) _EUSART1_Transmit_ISR                                 1     1      0       0
                                              0 COMMON     1     1      0
 ---------------------------------------------------------------------------------
 (9) _EUSART1_Receive_ISR                                  0     0      0       0
                   Absolute function *
        _EUSART1_DefaultErrorHandler *
 _EUSART1_DefaultFramingErrorHandler *
 _EUSART1_DefaultOverrunErrorHandler *
              _EUSART1_RxDataHandler
 ---------------------------------------------------------------------------------
 (10) _EUSART1_DefaultOverrunErrorHandler                  0     0      0       0
 ---------------------------------------------------------------------------------
 (10) _EUSART1_DefaultFramingErrorHandler                  0     0      0       0
 ---------------------------------------------------------------------------------
 (10) _EUSART1_DefaultErrorHandler                         0     0      0       0
              _EUSART1_RxDataHandler
 ---------------------------------------------------------------------------------
 (10) _EUSART1_RxDataHandler                               1     1      0       0
                                              0 COMMON     1     1      0
 ---------------------------------------------------------------------------------
 (10) Absolute function(Fake)                              0     0      0       0
 ---------------------------------------------------------------------------------
 Estimated maximum stack depth 10
 ---------------------------------------------------------------------------------

 Call Graph Graphs:

 _main (ROOT)
   _EUSART1_Read
   _SYSTEM_Initialize
     _EUSART1_Initialize
       _EUSART1_SetErrorHandler
       _EUSART1_SetFramingErrorHandler
       _EUSART1_SetOverrunErrorHandler
       _EUSART1_SetRxInterruptHandler
       _EUSART1_SetTxInterruptHandler
     _EUSART2_Initialize
       _EUSART2_SetErrorHandler
       _EUSART2_SetFramingErrorHandler
       _EUSART2_SetOverrunErrorHandler
     _OSCILLATOR_Initialize
     _PIN_MANAGER_Initialize
     _PMD_Initialize
   _parsing
   _printf
     _strchr (ARG)
     _vfprintf (ARG)
       _vfpfcnvrt
         _ctoa
           _fputc
             _putch
               _EUSART1_Write
         _fputc
           _putch
             _EUSART1_Write
   _strchr

 _INTERRUPT_InterruptManager (ROOT)
   Absolute function(Fake) *
   _EUSART1_Receive_ISR *
     Absolute function(Fake) *
     _EUSART1_DefaultErrorHandler *
       _EUSART1_RxDataHandler
     _EUSART1_DefaultFramingErrorHandler *
     _EUSART1_DefaultOverrunErrorHandler *
     _EUSART1_RxDataHandler *
   _EUSART1_Transmit_ISR *

 Address spaces:
Name               Size   Autos  Total    Cost      Usage
BIGRAM             3F0      0       0       0        0.0%
NULL                 0      0       0       0        0.0%
CODE                 0      0       0       0        0.0%
BITCOMMON            E      0       0       1        0.0%
BITSFR0              0      0       0       1        0.0%
SFR0                 0      0       0       1        0.0%
COMMON               E      C       D       2       92.9%
BITSFR1              0      0       0       2        0.0%
SFR1                 0      0       0       2        0.0%
BITSFR2              0      0       0       3        0.0%
SFR2                 0      0       0       3        0.0%
STACK                0      0       0       3        0.0%
BITSFR3              0      0       0       4        0.0%
SFR3                 0      0       0       4        0.0%
ABS                  0      0      AE       4        0.0%
BITBANK0            50      0       0       5        0.0%
BITSFR4              0      0       0       5        0.0%
SFR4                 0      0       0       5        0.0%
BANK0               50     25      40       6       80.0%
BITSFR5              0      0       0       6        0.0%
SFR5                 0      0       0       6        0.0%
BITBANK1            50      0       0       7        0.0%
BITSFR6              0      0       0       7        0.0%
SFR6                 0      0       0       7        0.0%
BANK1               50      0      50       8      100.0%
BITSFR7              0      0       0       8        0.0%
SFR7                 0      0       0       8        0.0%
BITBANK2            50      0       0       9        0.0%
BITSFR8              0      0       0       9        0.0%
SFR8                 0      0       0       9        0.0%
BANK2               50     11      11      10       21.2%
BITSFR9              0      0       0      10        0.0%
SFR9                 0      0       0      10        0.0%
BITBANK3            50      0       0      11        0.0%
BITSFR10             0      0       0      11        0.0%
SFR10                0      0       0      11        0.0%
BANK3               50      0       0      12        0.0%
BITSFR11             0      0       0      12        0.0%
SFR11                0      0       0      12        0.0%
BITBANK4            50      0       0      13        0.0%
BITSFR12             0      0       0      13        0.0%
SFR12                0      0       0      13        0.0%
BANK4               50      0       0      14        0.0%
BITSFR13             0      0       0      14        0.0%
SFR13                0      0       0      14        0.0%
BITBANK5            50      0       0      15        0.0%
BITSFR14             0      0       0      15        0.0%
SFR14                0      0       0      15        0.0%
BANK5               50      0       0      16        0.0%
BITSFR15             0      0       0      16        0.0%
SFR15                0      0       0      16        0.0%
BITBANK6            50      0       0      17        0.0%
BITSFR16             0      0       0      17        0.0%
SFR16                0      0       0      17        0.0%
BANK6               50      0       0      18        0.0%
BITSFR17             0      0       0      18        0.0%
SFR17                0      0       0      18        0.0%
BITBANK7            50      0       0      19        0.0%
BITSFR18             0      0       0      19        0.0%
SFR18                0      0       0      19        0.0%
BANK7               50      0       0      20        0.0%
BITSFR19             0      0       0      20        0.0%
SFR19                0      0       0      20        0.0%
BITBANK8            50      0       0      21        0.0%
BITSFR20             0      0       0      21        0.0%
SFR20                0      0       0      21        0.0%
BANK8               50      0       0      22        0.0%
BITSFR21             0      0       0      22        0.0%
SFR21                0      0       0      22        0.0%
BITBANK9            50      0       0      23        0.0%
BITSFR22             0      0       0      23        0.0%
SFR22                0      0       0      23        0.0%
BANK9               50      0       0      24        0.0%
BITSFR23             0      0       0      24        0.0%
SFR23                0      0       0      24        0.0%
BITBANK10           50      0       0      25        0.0%
BITSFR24             0      0       0      25        0.0%
SFR24                0      0       0      25        0.0%
BANK10              50      0       0      26        0.0%
BITSFR25             0      0       0      26        0.0%
SFR25                0      0       0      26        0.0%
BITBANK11           50      0       0      27        0.0%
BITSFR26             0      0       0      27        0.0%
SFR26                0      0       0      27        0.0%
BANK11              50      0       0      28        0.0%
BITSFR27             0      0       0      28        0.0%
SFR27                0      0       0      28        0.0%
BITBANK12           30      0       0      29        0.0%
BITSFR28             0      0       0      29        0.0%
SFR28                0      0       0      29        0.0%
BANK12              30      0       0      30        0.0%
BITSFR29             0      0       0      30        0.0%
SFR29                0      0       0      30        0.0%
BITSFR30             0      0       0      31        0.0%
SFR30                0      0       0      31        0.0%
DATA                 0      0      AE      31        0.0%
BITSFR31             0      0       0      32        0.0%
SFR31                0      0       0      32        0.0%
BITSFR32             0      0       0      33        0.0%
SFR32                0      0       0      33        0.0%
BITSFR33             0      0       0      34        0.0%
SFR33                0      0       0      34        0.0%
BITSFR34             0      0       0      35        0.0%
SFR34                0      0       0      35        0.0%
BITSFR35             0      0       0      36        0.0%
SFR35                0      0       0      36        0.0%
BITSFR36             0      0       0      37        0.0%
SFR36                0      0       0      37        0.0%
BITSFR37             0      0       0      38        0.0%
SFR37                0      0       0      38        0.0%
BITSFR38             0      0       0      39        0.0%
SFR38                0      0       0      39        0.0%
BITSFR39             0      0       0      40        0.0%
SFR39                0      0       0      40        0.0%
BITSFR40             0      0       0      41        0.0%
SFR40                0      0       0      41        0.0%
BITSFR41             0      0       0      42        0.0%
SFR41                0      0       0      42        0.0%
BITSFR42             0      0       0      43        0.0%
SFR42                0      0       0      43        0.0%
BITSFR43             0      0       0      44        0.0%
SFR43                0      0       0      44        0.0%
BITSFR44             0      0       0      45        0.0%
SFR44                0      0       0      45        0.0%
BITSFR45             0      0       0      46        0.0%
SFR45                0      0       0      46        0.0%
BITSFR46             0      0       0      47        0.0%
SFR46                0      0       0      47        0.0%
BITSFR47             0      0       0      48        0.0%
SFR47                0      0       0      48        0.0%
BITSFR48             0      0       0      49        0.0%
SFR48                0      0       0      49        0.0%
BITSFR49             0      0       0      50        0.0%
SFR49                0      0       0      50        0.0%
BITSFR50             0      0       0      51        0.0%
SFR50                0      0       0      51        0.0%
BITSFR51             0      0       0      52        0.0%
SFR51                0      0       0      52        0.0%
BITSFR52             0      0       0      53        0.0%
SFR52                0      0       0      53        0.0%
BITSFR53             0      0       0      54        0.0%
SFR53                0      0       0      54        0.0%
BITSFR54             0      0       0      55        0.0%
SFR54                0      0       0      55        0.0%
BITSFR55             0      0       0      56        0.0%
SFR55                0      0       0      56        0.0%
BITSFR56             0      0       0      57        0.0%
SFR56                0      0       0      57        0.0%
BITSFR57             0      0       0      58        0.0%
SFR57                0      0       0      58        0.0%
BITSFR58             0      0       0      59        0.0%
SFR58                0      0       0      59        0.0%
BITSFR59             0      0       0      60        0.0%
SFR59                0      0       0      60        0.0%
BITSFR60             0      0       0      61        0.0%
SFR60                0      0       0      61        0.0%
BITSFR61             0      0       0      62        0.0%
SFR61                0      0       0      62        0.0%
BITSFR62             0      0       0      63        0.0%
SFR62                0      0       0      63        0.0%
BITSFR63             0      0       0      64        0.0%
SFR63                0      0       0      64        0.0%


Microchip Technology PIC Macro Assembler V2.31 build 20201012212115 
Symbol Table                                                                                   Thu Feb 11 16:00:04 2021

                      _eusart1TxBufferRemaining 005F                                              l53 02C0  
                                           l200 0448                                             l203 0430  
                                           l131 022B                                             l150 0314  
                                           l206 0436                                             l331 0424  
                                           l243 03FA                                             l155 02C8  
                                           l156 02D1                                             l165 0418  
                                           l334 041E                                             l246 0404  
                                           l159 02EA                                             l352 0361  
                                           l337 042A                                             l249 040C  
                                           l194 0442                                             l292 0383  
                                           l197 043C                                             l913 03EA  
                                           l954 011E                                             l971 033C  
                                           l964 00F0                                             l957 0140  
                                           l983 01EC                                             l959 015A  
                                           l994 03C1                                             l996 03D8  
                                           u800 01E4                                             u801 01E3  
                                           u810 00F9                                             u811 00F8  
                                           u900 02F1                                             u740 02C8  
                                           u820 0108                                             u901 02F0  
                                           u741 02C7                                             u805 01E0  
                                           u821 0107                                             u910 030B  
                                           u750 02CD                                             u830 011B  
                                           u911 030A                                             u751 02CC  
                                           u831 011A                                             u920 0343  
                                           u760 02E5                                             u840 0140  
                                           u921 0342                                             u761 02E4  
                                           u841 013F                                             u770 01B3  
                                           u850 0145                                             u930 03CB  
                                           u771 01B2                                             u851 0144  
                                           u931 03CA                                             u780 01B8  
                                           u860 0055                                             u940 03D7  
                                           u781 01B7                                             u845 013C  
                                           u861 0054                                             u941 03D6  
                                           u790 01C7                                             u870 0076  
                                           u950 0190                                             u791 01C6  
                                           u871 0075                                             u951 018F  
                                           u880 00A9                                             u881 00A8  
                                           u890 0338                                             u891 0337  
        __end_of_EUSART2_SetFramingErrorHandler 0425         __size_of_EUSART2_SetFramingErrorHandler 0006  
                _EUSART2_SetFramingErrorHandler 041F                                             _ptr 00C0  
                       __size_of_PMD_Initialize 0008                                             wreg 0009  
                                          l2001 0338                                            l2011 0301  
                                          l2021 0311                                            l2013 0305  
                                          l2005 02EB                                            l2023 0313  
                                          l2015 030B                                            l2007 02EB  
                                          l2031 03F1                                            l2017 030C  
                                          l2009 02F1                                            l2033 03F4  
                                          l2041 0343                                            l2019 030E  
                                          l2035 03F7                                            l2027 03EB  
                                          l2051 035C                                            l2043 034B  
                                          l2029 03EE                                            l2045 034F  
                                          l2037 033D                                            l2061 03D7  
                                          l2053 03C1                                            l2047 0350  
                                          l2039 033D                                            l2055 03CB  
                                          l2049 0358                                            l2065 03D9  
                                          l2081 0161                                            l2067 03DE  
                                          l2059 03CD                                            l2083 0161  
                                          l2075 015B                                            l2085 016E  
                                          l2077 015E                                            l2087 017F  
                                          l2079 015E                                            l1801 02E6  
                                          l2089 0190                                            l1803 02E8  
                                          l1811 01B8                                            l1805 0414  
                                          l1813 01BD                                            l1821 00F3  
                                          l1901 00E6                                            l1911 029C  
                                          l1815 01C7                                            l1807 01AE  
                                          l1831 0116                                            l1823 00F9  
                                          l1921 02AD                                            l1913 029E  
                                          l1817 01E4                                            l1809 01B3  
                                          l1841 0132                                            l1825 00FE  
                                          l1851 042B                                            l1931 02B9  
                                          l1923 02AF                                            l1915 02A0  
                                          l1907 0296                                            l1843 0145  
                                          l1835 011C                                            l1827 0104  
                                          l1853 043D                                            l1941 01F6  
                                          l1861 0419                                            l1933 02BB  
                                          l1925 02B4                                            l1917 02A3  
                                          l1909 029A                                            l1845 0153  
                                          l1837 0121                                            l1829 0108  
                                          l1855 0437                                            l1951 0208  
                                          l1943 01FF                                            l1863 0425  
                                          l1935 02BE                                            l1927 02B5  
                                          l1919 02A5                                            l1791 02CD  
                                          l1839 012D                                            l1871 0061  
                                          l1857 0443                                            l1849 0431  
                                          l1961 0226                                            l1953 0209  
                                          l1945 0202                                            l1937 01ED  
                                          l1929 02B7                                            l1793 02D2  
                                          l1873 0065                                            l1865 0044  
                                          l1963 0227                                            l1955 0210  
                                          l1947 0204                                            l1939 01EF  
                                          l1859 041F                                            l1971 03FB  
                                          l1795 02DB                                            l1787 02C2  
                                          l1875 0076                                            l1883 0098  
                                          l1867 0055                                            l1965 0228  
                                          l1957 0217                                            l1949 0206  
                                          l1981 0362                                            l1973 03FE  
                                          l1797 02DF                                            l1789 02C2  
                                          l1885 00A9                                            l1893 00C2  
                                          l1877 007E                                            l1869 005D  
                                          l1967 0229                                            l1959 0222  
                                          l1991 0381                                            l1983 036B  
                                          l1975 03FF                                            l1799 02E5  
                                          l1895 00CA                                            l1887 00B1  
                                          l1879 008A                                            l1985 036C  
                                          l1977 0402                                            l1969 0405  
                                          l1889 00BC                                            l1993 0317  
                                          l1987 0373                                            l1979 0403  
                                          l1899 00CD                                            l1995 031B  
                                          l1989 037A                                            l1997 031E  
                                          l1999 032F                                            STR_1 0265  
                                          _LATA 0018                                            _LATB 0019  
                                          _LATC 001A                                            _PMD0 0796  
                                          _PMD1 0797                                            _PMD2 0798  
                                          _PMD3 0799                                            _PMD4 079A  
                                          _PMD5 079B                                            _WPUA 1F39  
                                          _WPUB 1F44                                            _WPUC 1F4F  
                                 _EUSART1_Write 02C1                                            _dbuf 00A0  
                                          _ctoa 00F1                                            _main 015B  
                                 ?_EUSART1_Read 0070                                            _prec 0051  
                                          _nout 004D                                            fsr0h 0005  
                                          fsr1h 0007                                            indf0 0000  
                                          fsr0l 0004                                            indf1 0001  
                                          fsr1l 0006                                            btemp 007E  
                                          start 002B                  __size_of_OSCILLATOR_Initialize 000A  
                 __end_of_OSCILLATOR_Initialize 0405                           _eusart1RxStatusBuffer 0045  
                                         ?_ctoa 0020                                           ?_main 0070  
                                         i1l171 03A5                                           i1l182 03BF  
                                         i1l191 0450                                           i1l168 03A3  
                                         i1l185 0451                                           i1l178 0264  
                                         i1l188 044C                                           i1l382 0029  
                                         i1l377 001A                                           i1l378 0029  
                                         _OSCEN 0891                                    vfpfcnvrt@fmt 002A  
                                         u51_20 03B9                                           u51_21 03B8  
                                         u60_20 0236                                           u60_21 0235  
                                         u61_20 0246                                           u61_21 0245  
                                         u62_20 025A                                           u70_20 000F  
                                         u62_21 0259                                           u70_21 000E  
                                         u71_20 0013                                           u71_21 0012  
                                         u72_20 001E                                           u72_21 001D  
                                         u73_20 0022                                           u73_21 0021  
                                         _TRISA 0012                                           _TRISB 0013  
                                         _TRISC 0014                                           u58_20 038B  
                                         u58_21 038A                                           u59_20 039D  
                                         u59_21 039C                                           u69_20 000A  
                                         u69_21 0009                            _EUSART1_Transmit_ISR 0384  
                                         _flags 0053                                           _fputc 01AE  
                                         _width 004F                                           ctoa@c 0020  
                                         _putch 0413                                           ctoa@l 0025  
                                         ctoa@w 0027                                 __end_of_parsing 0362  
                                ?_EUSART1_Write 0070                                           pclath 000A  
                                ??_EUSART1_Read 0071                                           status 0003  
                                         wtemp0 007E      __end_of_EUSART1_DefaultFramingErrorHandler 0452  
   __size_of_EUSART1_DefaultFramingErrorHandler 0001            ??_EUSART1_DefaultFramingErrorHandler 0070  
           ?_EUSART1_DefaultFramingErrorHandler 0070              _EUSART1_DefaultFramingErrorHandler 0451  
                               __initialization 002D                                    __end_of_ctoa 015B  
                    __end_of_EUSART1_Initialize 022C                                    __end_of_main 01AE  
                              main@char_counter 012D                     ?_INTERRUPT_InterruptManager 0070  
                                        ??_ctoa 0022                                          ??_main 0043  
                   _EUSART2_DefaultErrorHandler 0000                           ?_EUSART1_Transmit_ISR 0070  
                    __end_of_EUSART2_Initialize 0384                                          ?_fputc 0074  
                                        _ANSELA 1F38                                          ?_putch 0070  
                                        _ANSELB 1F43                                          _ANSELC 1F4E  
                                        _RC1REG 0119                                          _RC2REG 0A19  
                                        _RC0PPS 1F20                                          _RC1STA 011D  
                                        _RC2STA 0A1D                                          _RB7PPS 1F1F  
                                        _ODCONA 1F3A                                          _ODCONB 1F45  
                                        _ODCONC 1F50                                          i1l1605 0449  
                                        i1l1607 044D                                          i1l1491 03B9  
                                        i1l1493 03BA                                          i1l1485 03A6  
                                        i1l1487 03AF                                          i1l1671 0392  
                                        i1l1489 03B3                                          i1l1681 0231  
                                        i1l1673 0397                                          i1l1691 024B  
                                        i1l1683 0236                                          i1l1675 039D  
                                        i1l1667 0384                                          i1l1693 0251  
                                        i1l1685 023B                                          i1l1677 039E  
                                        i1l1669 038B                                          i1l1781 0013  
                                        i1l1695 025A                                          i1l1687 0241  
                                        i1l1679 022C                                          i1l1783 001E  
                                        i1l1775 0006                                          i1l1697 0261  
                                        i1l1689 0246                                          i1l1785 0022  
                                        i1l1777 000A                                          i1l1779 000F  
                                        _INLVLA 1F3C                                          _INLVLB 1F47  
                                        _INLVLC 1F52                                          _OSCFRQ 0893  
                                        _TX1REG 011A                                          _TX2REG 0A1A  
                                        _TX1STA 011E                                          _TX2STA 0A1E  
                                  vfprintf@cfmt 0039                        ?_EUSART1_SetErrorHandler 0071  
                   _EUSART2_FramingErrorHandler 00E8                                          _printf 03D9  
              ??_EUSART1_SetOverrunErrorHandler 0073                 ?_EUSART1_SetOverrunErrorHandler 0071  
                                        ctoa@fp 0029                                          _strchr 03C0  
                                        fputc@c 0074                                  _PMD_Initialize 0405  
                                     ??_parsing 0076                                __end_of_vfprintf 033D  
                               ??_EUSART1_Write 0071                                 _eusart1RxBuffer 00D4  
                               _eusart1TxBuffer 00DC                               _SYSTEM_Initialize 03EB  
                       __end_of__initialization 003E                              ?_SYSTEM_Initialize 0070  
                __size_of_EUSART1_RxDataHandler 001A                   __end_of_EUSART1_RxDataHandler 03C0  
                                __pcstackCOMMON 0070                             ??_SYSTEM_Initialize 0074  
                                 parsing@Buffer 0073                                   __end_of_fputc 01ED  
                                 __end_of_putch 0419                          __end_of_PMD_Initialize 040D  
                          __end_of_EUSART1_Read 0315                          ??_EUSART1_Transmit_ISR 0070  
                      ?_EUSART2_SetErrorHandler 0071                     __end_of_EUSART1_Receive_ISR 0265  
                                       ??_fputc 0077                       __end_of_SYSTEM_Initialize 03FB  
                                       ??_putch 0073                                   _eusart1RxHead 007C  
                                 _eusart1TxHead 005A                                   _eusart1RxTail 0058  
                                    __pbssBANK0 0045                                      __pbssBANK1 00A0  
                                 _eusart1TxTail 0059               _EUSART1_TxDefaultInterruptHandler 005D  
               ??_EUSART1_SetRxInterruptHandler 0073                ??_EUSART2_SetFramingErrorHandler 0073  
               ?_EUSART2_SetFramingErrorHandler 0071                 __end_of_EUSART1_SetErrorHandler 0449  
                                    __pmaintext 015B                                      __pintentry 0004  
                                       ?_printf 003B                                 ?_PMD_Initialize 0070  
                                       ?_strchr 0071          __end_of_EUSART1_SetFramingErrorHandler 0443  
       __size_of_EUSART1_SetFramingErrorHandler 0006                  _EUSART1_SetFramingErrorHandler 043D  
                  ?_EUSART1_DefaultErrorHandler 0070                                         _SP1BRGH 011C  
                                       _SP1BRGL 011B                                         _SP2BRGH 0A1C  
                                       _SP2BRGL 0A1B                                         _OSCCON1 088D  
                                       _OSCCON3 088F                              __size_of_vfpfcnvrt 00AF  
                                       _OSCSTAT 0890                                         _OSCTUNE 0892  
                                       _SLRCONA 1F3B                                         _SLRCONB 1F46  
                                       _SLRCONC 1F51                                       ?_vfprintf 0033  
               __end_of_EUSART2_SetErrorHandler 042B                                         __ptext1 03C0  
                                       __ptext2 03D9                                         __ptext3 0315  
                                       __ptext4 0042                                         __ptext5 00F1  
                                       __ptext6 01AE                                         __ptext7 0413  
                                       __ptext8 02C1                                         __ptext9 033D  
                               __size_of_printf 0012                                 __size_of_strchr 0019  
            _EUSART2_DefaultOverrunErrorHandler 0000                           _OSCILLATOR_Initialize 03FB  
                           parsing@char_counter 0074                                         _parsing 033D  
                            _EUSART1_Initialize 01ED                        ??_PIN_MANAGER_Initialize 0071  
                 ??_EUSART1_DefaultErrorHandler 0071                      __size_of_SYSTEM_Initialize 0010  
                                       clrloop0 040E                            end_of_initialization 003E  
                           ?_EUSART1_Initialize 0070                                         fputc@fp 0076  
                   _EUSART1_OverrunErrorHandler 00EC           __end_of_EUSART1_SetRxInterruptHandler 0437  
        __size_of_EUSART1_SetRxInterruptHandler 0006                   _EUSART1_SetRxInterruptHandler 0431  
                            _EUSART2_Initialize 0362                               __end_of_vfpfcnvrt 00F1  
                         __size_of_EUSART1_Read 002A                                      ??_vfprintf 0036  
                          ??_EUSART1_Initialize 0073                                         strchr@c 0071  
                                       strchr@s 0073                             ?_EUSART2_Initialize 0070  
                                    main@Buffer 0122                __size_of_EUSART1_SetErrorHandler 0006  
                           EUSART1_Write@txData 0072                            ??_EUSART2_Initialize 0073  
                                  _EUSART1_Read 02EB            __size_of_EUSART1_DefaultErrorHandler 0004  
                                   vfpfcnvrt@ap 002B                                     vfpfcnvrt@fp 0032  
                        ?_OSCILLATOR_Initialize 0070                                  __end_of_printf 03EB  
                                __end_of_strchr 03D9                             start_initialization 002D  
               __size_of_PIN_MANAGER_Initialize 002B   EUSART1_SetRxInterruptHandler@interruptHandler 0071  
 EUSART1_SetTxInterruptHandler@interruptHandler 0071                                     putch@txData 0073  
                         __end_of_EUSART1_Write 02EB                __size_of_EUSART2_SetErrorHandler 0006  
        __end_of_EUSART2_SetOverrunErrorHandler 041F         __size_of_EUSART2_SetOverrunErrorHandler 0006  
                _EUSART2_SetOverrunErrorHandler 0419                                     vfprintf@fmt 0033  
                              ??_PMD_Initialize 0071                           _EUSART1_RxDataHandler 03A6  
                ?_EUSART1_SetRxInterruptHandler 0071                                        ??_printf 003F  
                                      ??_strchr 0073                                  _eusart1RxCount 0057  
                                   __pbssCOMMON 007C               _EUSART1_RxDefaultInterruptHandler 005B  
                                     ___latbits 0002                   __size_of_EUSART1_Transmit_ISR 0022  
                                 __pcstackBANK0 0020                                   __pcstackBANK2 0120  
                                  parsing@Value 0071                 ??_EUSART1_SetTxInterruptHandler 0073  
              ??_EUSART1_SetFramingErrorHandler 0073                 ?_EUSART1_SetFramingErrorHandler 0071  
                  __size_of_EUSART1_Receive_ISR 0039                                       __pnvBANK0 005B  
                                     __pnvBANK1 00E4                          _PIN_MANAGER_Initialize 0296  
                  ??_INTERRUPT_InterruptManager 0071                               __size_of_vfprintf 0028  
                                      _BAUD1CON 011F                                        _BAUD2CON 0A1F  
    __end_of_EUSART1_DefaultOverrunErrorHandler 044D     __size_of_EUSART1_DefaultOverrunErrorHandler 0004  
          ??_EUSART1_DefaultOverrunErrorHandler 0070             ?_EUSART1_DefaultOverrunErrorHandler 0070  
            _EUSART1_DefaultOverrunErrorHandler 0449                            _EUSART1_ErrorHandler 00EA  
                                      ?_parsing 0071                         _EUSART1_SetErrorHandler 0443  
                                __size_of_fputc 003F                                  __size_of_putch 0006  
       EUSART2_SetErrorHandler@interruptHandler 0071         EUSART1_SetErrorHandler@interruptHandler 0071  
                                     clear_ram0 040D                                        _PIE3bits 0719  
           __size_of_INTERRUPT_InterruptManager 0027                                        _PIR3bits 070F  
                                      _RX1DTPPS 1ECB                                        _RX2DTPPS 1ECD  
                        ?_EUSART1_RxDataHandler 0070                                       _vfpfcnvrt 0042  
                                    vfpfcnvrt@c 0031                         _EUSART2_SetErrorHandler 0425  
                         EUSART1_Read@readValue 0072                     _EUSART2_OverrunErrorHandler 00E6  
         __end_of_EUSART1_SetTxInterruptHandler 0431          __size_of_EUSART1_SetTxInterruptHandler 0006  
                 _EUSART1_SetTxInterruptHandler 042B                                      vfprintf@ap 0035  
                                    vfprintf@fp 0038                         ??_OSCILLATOR_Initialize 0071  
                   __size_of_EUSART1_Initialize 003F                                      ?_vfpfcnvrt 002A  
                     ??_EUSART1_SetErrorHandler 0073             __end_of_EUSART1_DefaultErrorHandler 0451  
                   _EUSART1_DefaultErrorHandler 044D                            _EUSART2_ErrorHandler 00E4  
                              __size_of_parsing 0025                                        __ptext10 03EB  
                                      __ptext11 0405                                        __ptext20 0431  
                                      __ptext12 0296                                        __ptext21 0437  
                                      __ptext13 03FB                                        __ptext30 044D  
                                      __ptext22 043D                                        __ptext14 0362  
                                      __ptext31 03A6                                        __ptext23 0443  
                                      __ptext15 0419                                        __ptext24 02EB  
                                      __ptext16 041F                                        __ptext17 0425  
                                      __ptext26 0384                                        __ptext18 01ED  
                                      __ptext27 022C                                        __ptext19 042B  
                                      __ptext28 0449                                        __ptext29 0451  
                   __size_of_EUSART2_Initialize 0022                                   __size_of_ctoa 006A  
                                 __size_of_main 0053              _EUSART2_DefaultFramingErrorHandler 0000  
                                    _RC1STAbits 011D                                      _RC2STAbits 0A1D  
EUSART2_SetOverrunErrorHandler@interruptHandler 0071  EUSART1_SetOverrunErrorHandler@interruptHandler 0071  
                                      int$flags 007E                                        _vfprintf 0315  
            __end_of_INTERRUPT_InterruptManager 002B                      _INTERRUPT_InterruptManager 0004  
                                     printf@fmt 003B                                        main@read 012F  
                   _EUSART1_FramingErrorHandler 00EE                             _EUSART1_Receive_ISR 022C  
              ??_EUSART2_SetOverrunErrorHandler 0073                 ?_EUSART2_SetOverrunErrorHandler 0071  
                                    _INTCONbits 000B                       ??_EUSART2_SetErrorHandler 0073  
                                      intlevel1 0000                            ?_EUSART1_Receive_ISR 0070  
                       ?_PIN_MANAGER_Initialize 0070          __end_of_EUSART1_SetOverrunErrorHandler 043D  
       __size_of_EUSART1_SetOverrunErrorHandler 0006                  _EUSART1_SetOverrunErrorHandler 0437  
                  __end_of_EUSART1_Transmit_ISR 03A6                                        printf@ap 0042  
EUSART2_SetFramingErrorHandler@interruptHandler 0071  EUSART1_SetFramingErrorHandler@interruptHandler 0071  
                ?_EUSART1_SetTxInterruptHandler 0071                                     ??_vfpfcnvrt 002C  
                        __size_of_EUSART1_Write 002A                              _eusart1RxLastError 0056  
                                 __pstringtext1 0265                                   __pstringtext2 0000  
                                    _TX1STAbits 011E                                      _TX2STAbits 0A1E  
                         ??_EUSART1_Receive_ISR 0071                  __end_of_PIN_MANAGER_Initialize 02C1  
                            _eusart2RxLastError 0055                         ??_EUSART1_RxDataHandler 0070  
